(dp0
S'hand'
p1
(dp2
S'grasp'
p3
(lp4
(lp5
F0.0
aF0.0
aF0.0
aF0.0
aF0.0
aa(lp6
F2.0
aF15.0
aF0.0
aF15.0
aF0.0
aa(lp7
F3.0
aF15.0
aF0.0
aF15.0
aF0.0
aasS'release'
p8
(lp9
(lp10
F0.0
aF15.0
aF0.0
aF15.0
aF0.0
aa(lp11
F2.0
aF0.0
aF0.0
aF0.0
aF0.0
aa(lp12
F3.0
aF0.0
aF0.0
aF0.0
aF0.0
aasS'startup'
p13
(lp14
(lp15
F0.0
aF0.0
aF0.0
aF0.0
aF0.0
aa(lp16
F0.0
aF0.0
aF0.0
aF0.0
aF0.0
aassS'arm'
p17
(dp18
S'pre'
p19
ccopy_reg
_reconstructor
p20
(cmoveit_msgs.msg._RobotTrajectory
RobotTrajectory
p21
c__builtin__
object
p22
Ntp23
Rp24
(lp25
g20
(ctrajectory_msgs.msg._JointTrajectory
JointTrajectory
p26
g22
Ntp27
Rp28
(lp29
g20
(cstd_msgs.msg._Header
Header
p30
g22
Ntp31
Rp32
(lp33
I0
ag20
(cgenpy.rostime
Time
p34
g22
Ntp35
Rp36
(lp37
I0
aI0
abaS'world'
p38
aba(lp39
S'shoulder_pan_joint'
p40
aS'shoulder_lift_joint'
p41
aS'elbow_joint'
p42
aS'wrist_1_joint'
p43
aS'wrist_2_joint'
p44
aS'wrist_3_joint'
p45
aa(lp46
g20
(ctrajectory_msgs.msg._JointTrajectoryPoint
JointTrajectoryPoint
p47
g22
Ntp48
Rp49
(lp50
(F0.0004038295435320194
F0.011801450332320051
F0.00023238738680131377
F0.0006997662060843624
F-2.968907562372891e-05
F-2.0167295661011053e-05
tp51
a(ta(ta(tag20
(cgenpy.rostime
Duration
p52
g22
Ntp53
Rp54
(lp55
I0
aI0
ababaabag20
(ctrajectory_msgs.msg._MultiDOFJointTrajectory
MultiDOFJointTrajectory
p56
g22
Ntp57
Rp58
(lp59
g20
(g30
g22
Ntp60
Rp61
(lp62
I0
ag20
(g34
g22
Ntp63
Rp64
(lp65
I0
aI0
abaS''
p66
aba(lp67
a(lp68
ababsS'post'
p69
g20
(g21
g22
Ntp70
Rp71
(lp72
g20
(g26
g22
Ntp73
Rp74
(lp75
g20
(g30
g22
Ntp76
Rp77
(lp78
I0
ag20
(g34
g22
Ntp79
Rp80
(lp81
I0
aI0
abaS'world'
p82
aba(lp83
S'shoulder_pan_joint'
p84
aS'shoulder_lift_joint'
p85
aS'elbow_joint'
p86
aS'wrist_1_joint'
p87
aS'wrist_2_joint'
p88
aS'wrist_3_joint'
p89
aa(lp90
g20
(g47
g22
Ntp91
Rp92
(lp93
(F0.0004038295435320194
F0.011801450332320051
F0.00023238738680131377
F0.0006997662060843624
F-2.968907562372891e-05
F-2.0167295661011053e-05
tp94
a(F0.0
F0.0
F0.0
F0.0
F0.0
F0.0
tp95
a(F0.0
F0.0
F0.0
F0.0
F0.0
F0.0
tp96
a(tag20
(g52
g22
Ntp97
Rp98
(lp99
I0
aI0
ababag20
(g47
g22
Ntp100
Rp101
(lp102
(F3.476199893071529
F3.060313945186994
F0.15547239817441996
F-3.282238652199272
F-2.8068664517715485
F6.2329920411994975
tp103
a(F1.0021142404706171
F0.8596718600957246
F0.07950574879704861
F-1.0140930779483663
F-0.7945323980954638
F1.7348436457265755
tp104
a(F-1.6826996267807408
F-1.508646638621006
F-0.015945746968029476
F1.4741775401039845
F1.3839132760924564
F-3.1235224275867868
tp105
a(tag20
(g52
g22
Ntp106
Rp107
(lp108
I1
aI746941422
ababag20
(g47
g22
Ntp109
Rp110
(lp111
(F3.484957096751371
F3.0448716878788065
F0.19759981505783686
F-3.371683265668555
F-2.796266630394675
F6.173975672481952
tp112
a(F0.05402313513913833
F-0.09539959512243051
F0.254871044390859
F-0.5184784311807067
F0.07122165510420447
F-0.33531943194286573
tp113
a(F0.22649859185654767
F-0.40018589051548104
F1.0608079510540558
F-2.1221596581932656
F0.30764454157895404
F-1.3613000706163534
tp114
a(tag20
(g52
g22
Ntp115
Rp116
(lp117
I2
aI347495289
ababag20
(g47
g22
Ntp118
Rp119
(lp120
(F3.493928256924624
F3.029025958734935
F0.23979419989141443
F-3.4569196798342823
F-2.7842883777710608
F6.119036956611851
tp121
a(F0.11113154666829085
F-0.19665410641798645
F0.5178068243712198
F-1.013098004673063
F0.1551338383684649
F-0.6421928073922436
tp122
a(F0.4223280531287664
F-0.7546301692527883
F1.8696426365185728
F-2.9899524357731684
F0.7252830557444528
F-1.6691180781534203
tp123
a(tag20
(g52
g22
Ntp124
Rp125
(lp126
I2
aI443480081
ababag20
(g47
g22
Ntp127
Rp128
(lp129
(F3.5031175696571744
F3.012743132826885
F0.28231797106249873
F-3.538124344325808
F-2.771055459799562
F6.068237192428108
tp130
a(F0.14533325602879732
F-0.2564910705988621
F0.6650971295645514
F-1.2332272934354096
F0.21629249244594442
F-0.7577047409118798
tp131
a(F0.51075775955391
F-0.8732289951732446
F2.133840729860017
F-2.9361648470627855
F0.9519795903248356
F-1.4113199551170612
tp132
a(tag20
(g52
g22
Ntp133
Rp134
(lp135
I2
aI514826396
ababag20
(g47
g22
Ntp136
Rp137
(lp138
(F3.512529222323503
F2.9961860425389744
F0.3250058961663941
F-3.61535586133998
F-2.756687448075892
F6.0215246665440105
tp139
a(F0.1569611389970526
F-0.2735488168410828
F0.702966214829738
F-1.2425809426665522
F0.24495481888443382
F-0.7389691549284172
tp140
a(F-0.1614963839474057
F0.36899286581271584
F-1.027197569294938
F2.820620365900362
F-0.0709526961146897
F2.1204173099383214
tp141
a(tag20
(g52
g22
Ntp142
Rp143
(lp144
I2
aI572970462
ababag20
(g47
g22
Ntp145
Rp146
(lp147
(F3.522167364507177
F2.9795574635185336
F0.36758598493899114
F-3.688686201791058
F-2.7412973563683023
F5.978767848312965
tp148
a(F0.16539534573515952
F-0.2806847539426637
F0.718055693793161
F-1.2082157670303073
F0.2690746735740599
F-0.6903215896744815
tp149
a(F0.4499450932536385
F-0.6187814995920016
F1.5614952862164604
F-1.731279201425506
F0.8861911111434326
F-0.5320776843008795
tp150
a(tag20
(g52
g22
Ntp151
Rp152
(lp153
I2
aI636356578
ababag20
(g47
g22
Ntp154
Rp155
(lp156
(F3.5320360950648144
F2.9630467498035253
F0.40978898112268614
F-3.7582308174938412
F-2.724989906237159
F5.939781414538194
tp157
a(F0.17390589880663399
F-0.28535474231412095
F0.730230925899886
F-1.1813152581689585
F0.29100015225218967
F-0.6495327509338893
tp158
a(F-0.16805460129838742
F0.47584056026504973
F-1.187197149692218
F2.721847732632247
F-0.15134680495209468
F1.9679835484937305
tp159
a(tag20
(g52
g22
Ntp160
Rp161
(lp162
I2
aI691570515
ababag20
(g47
g22
Ntp163
Rp164
(lp165
(F3.542139448292925
F2.9468122504619263
F0.45138590045925514
F-3.8241470810916454
F-2.7078607215249626
F5.90434777373115
tp166
a(F0.1612140038408949
F-0.2532332166337714
F0.6506286849953222
F-1.014745875925394
F0.27577456211600604
F-0.5345807990261178
tp167
a(F-0.2472281122003332
F0.5800408962764929
F-1.4302125635784428
F2.7779752311975585
F-0.3420089109576945
F1.8361355792131195
tp168
a(tag20
(g52
g22
Ntp169
Rp170
(lp171
I2
aI751326948
ababag20
(g47
g22
Ntp172
Rp173
(lp174
(F3.5524813789599987
F2.9309783495638286
F0.49219656593212885
F-3.8866231833878473
F-2.689996200150152
F5.872233753084756
tp175
a(F0.14008753006464408
F-0.20929692843692105
F0.5415577211050524
F-0.8181294784206805
F0.24341763644787343
F-0.4120222346195902
tp176
a(F-0.35162801193759746
F0.67573649521413
F-1.6857019952628856
F2.8703014564169926
F-0.5694330287487923
F1.7010691598696344
tp177
a(tag20
(g52
g22
Ntp178
Rp179
(lp180
I2
aI818765922
ababag20
(g47
g22
Ntp181
Rp182
(lp183
(F3.5630657461238227
F2.915638322556403
F0.5320866585051925
F-3.9458658279203873
F-2.6714738409290457
F5.843202819509604
tp184
a(F0.07553846004002504
F-0.10845113410289979
F0.28251096778001455
F-0.4178795261305768
F0.13236699768229615
F-0.2032387125550604
tp185
a(F-0.38705062589049577
F0.5687109561145594
F-1.4751325671996327
F2.2035487840953976
F-0.6759945389765463
F1.091411908114761
tp186
a(tag20
(g52
g22
Ntp187
Rp188
(lp189
I2
aI902223956
ababag20
(g47
g22
Ntp190
Rp191
(lp192
(F3.5738962956808447
F2.9008591402357635
F0.5709608057447475
F-4.002089671314036
F-2.6523628483121064
F5.817023539624691
tp193
a(F-0.8493482228344251
F-0.8587014258358179
F0.23839184605206648
F1.807956379425203
F0.6079084999151658
F-1.002109222358126
tp194
a(F-1.4116554494252516
F-1.3340952821463707
F0.24454369254644076
F3.1249364841606617
F0.9131631290105834
F-1.5245745579334538
tp195
a(tag20
(g52
g22
Ntp196
Rp197
(lp198
I3
aI348765491
ababag20
(g47
g22
Ntp199
Rp200
(lp201
(F0.07827534049079322
F-0.5163568705008781
F1.3616625024623883
F3.5895333343129043
F-0.2724744260934434
F1.8696958910499812
tp202
a(F-0.852155529774531
F-0.8640903830868624
F0.22906556336994952
F1.854878999211096
F0.5590975012389031
F-0.9668277722657568
tp203
a(F1.4222948556368475
F1.3396815206095198
F-0.2624139745624291
F-3.08199876554795
F-1.0027359734597174
F1.5986432554218457
tp204
a(tag20
(g52
g22
Ntp205
Rp206
(lp207
I5
aI377622658
ababag20
(g47
g22
Ntp208
Rp209
(lp210
(F0.08610641595801619
F-0.5347900044875404
F1.3904008146459685
F3.576062178641271
F-0.29550767972648534
F1.874710616454294
tp211
a(F0.08203067510515323
F-0.18561063895832877
F0.2858343314109205
F-0.1318759954498402
F-0.2356724184692224
F0.05244975924758936
tp212
a(F0.5331898595509993
F-1.192157563472664
F1.8288388782218183
F-0.8395289977757907
F-1.5211377270064403
F0.3407652235761112
tp213
a(tag20
(g52
g22
Ntp214
Rp215
(lp216
I5
aI797751948
ababag20
(g47
g22
Ntp217
Rp218
(lp219
(F0.09416730004248736
F-0.5529351759487652
F1.418297359667884
F3.563219474129299
F-0.3185958792916938
F1.879863678934609
tp220
a(F0.17155863830549928
F-0.37662869565896995
F0.574334259426396
F-0.2614837126285313
F-0.48401458048533935
F0.10959527612075452
tp221
a(F1.0734282502678252
F-2.0239930230262533
F2.918761341401592
F-1.223703604020283
F-2.7719324386140562
F0.6830615330888583
tp222
a(tag20
(g52
g22
Ntp223
Rp224
(lp225
I5
aI853183054
ababag20
(g47
g22
Ntp226
Rp227
(lp228
(F0.10246362189707559
F-0.5708085874145375
F1.4453817953574855
F3.5509958817483662
F-0.34174000644379626
F1.8851608190518818
tp229
a(F0.2204562799761418
F-0.46391626105676165
F0.6973483036580598
F-0.3110315403220209
F-0.6062462667707713
F0.14068309690197173
tp230
a(F1.1813700783939793
F-1.9726240711473757
F2.696150932133498
F-1.0251972937088405
F-2.84110779315639
F0.7503198623164771
tp231
a(tag20
(g52
g22
Ntp232
Rp233
(lp234
I5
aI895148184
ababag20
(g47
g22
Ntp235
Rp236
(lp237
(F0.11100058966508845
F-0.588426140828804
F1.4716821509563507
F3.53938531496937
F-0.3649406882634916
F1.8906062319847279
tp238
a(F0.26534236671685457
F-0.5353219882431193
F0.7926280113443727
F-0.345433260858255
F-0.7111135149579689
F0.16918203766079065
tp239
a(F1.348031635998715
F-2.0349863714872134
F2.640250012638182
F-0.8925736829598657
F-3.0542328716743152
F0.855597263484115
tp240
a(tag20
(g52
g22
Ntp241
Rp242
(lp243
I5
aI930248401
ababag20
(g47
g22
Ntp244
Rp245
(lp246
(F0.11978338782155676
F-0.6058019132267145
F1.4972227254805752
F3.5283839500950442
F-0.3881984037252911
F1.896204176734173
tp247
a(F0.30696102182880547
F-0.5941725083702041
F0.8661140016361841
F-0.3678455628769891
F-0.8018907336035841
F0.19559358641925823
tp248
a(F1.3391736974930641
F-1.7484015219384563
F2.071371182612659
F-0.5332705587354677
F-2.792472572980943
F0.8497099022051661
tp249
a(tag20
(g52
g22
Ntp250
Rp251
(lp252
I5
aI960800688
ababag20
(g47
g22
Ntp253
Rp254
(lp255
(F0.12881716048525307
F-0.6229483554402974
F1.5220245347469696
F3.5179899772746177
F-0.41151346375011616
F1.9019589872170464
tp256
a(F0.34492256895678813
F-0.6408999758672316
F0.9191245032154058
F-0.37921519415729843
F-0.8784013887966244
F0.21969109765253952
tp257
a(F1.3876371800726606
F-1.5987043654436512
F1.7175571404692724
F-0.27103511238248584
F-2.6946033349567533
F0.8812709107118796
tp258
a(tag20
(g52
g22
Ntp259
Rp260
(lp261
I5
aI988473087
ababag20
(g47
g22
Ntp262
Rp263
(lp264
(F0.13810699308192292
F-0.6398764561062981
F1.546105688575608
F3.508203390137198
F-0.4348859896472496
F1.9078750792550812
tp265
a(F0.3799627789151816
F-0.6781675606988299
F0.9562552956241321
F-0.38192892194339606
F-0.9435140188262368
F0.2419638404411607
tp266
a(F1.3350924521261471
F-1.2882241639817773
F1.1497655558238205
F0.0719856588561018
F-2.3564601315390665
F0.8494429181550444
tp267
a(tag20
(g52
g22
Ntp268
Rp269
(lp270
I6
aI14037385
ababag20
(g47
g22
Ntp271
Rp272
(lp273
(F0.14765789228939555
F-0.6565958771249061
F1.5694817114585986
F3.499025805396464
F-0.45831588988978406
F1.9139569547840667
tp274
a(F0.4167990712924171
F-0.7148097200820434
F0.9902304611065118
F-0.3811928366645363
F-1.009220778207015
F0.26543406273013037
tp275
a(F1.7414171905776783
F-1.7747274380623819
F1.6932294701907167
F-0.013529624572202945
F-3.1329334148377543
F1.1108341160407387
tp276
a(tag20
(g52
g22
Ntp277
Rp278
(lp279
I6
aI38123296
ababag20
(g47
g22
Ntp280
Rp281
(lp282
(F0.15747476420105272
F-0.6731150654739863
F1.592165817198187
F3.4904603059268497
F-0.4818028351771678
F1.9202092040101466
tp283
a(F0.4546917588946329
F-0.7499431474654774
F1.0200839391936056
F-0.3767681621529787
F-1.0740101314978887
F0.2896489413129345
tp284
a(F1.6092076614759123
F-1.321943031691259
F0.9265327056558545
F0.4182805199401059
F-2.5863253633236227
F1.0304678985899538
tp285
a(tag20
(g52
g22
Ntp286
Rp287
(lp288
I6
aI60584273
ababag20
(g47
g22
Ntp289
Rp290
(lp291
(F0.16756239065481288
F-0.6894413453330903
F1.6141691458793155
F3.4825113023998973
F-0.5053462317455837
F1.9266365058738588
tp292
a(F0.47425870091208244
F-0.7530338582964174
F1.0052329329300194
F-0.3544343676184721
F-1.0933765735003425
F0.3022726751953244
tp293
a(F0.1798384894231615
F1.056661140300896
F-2.3192081323228044
F1.6467379897555114
F0.8317175657403908
F0.12387148973261294
tp294
a(tag20
(g52
g22
Ntp295
Rp296
(lp297
I6
aI81941880
ababag20
(g47
g22
Ntp298
Rp299
(lp300
(F0.17792540368945228
F-0.7055809936537512
F1.6355009698982028
F3.4751844091741257
F-0.5289451929152064
F1.9332436272481512
tp301
a(F0.47585514507353893
F-0.7273228418109483
F0.9518275288910317
F-0.31797331927185646
F-1.0706095701198053
F0.30352954558664325
tp302
a(F-0.031007508107106802
F1.2976039492140696
F-2.5738179294525803
F1.6953090903646963
F1.2505629553938895
F-0.0071088071586946685
tp303
a(tag20
(g52
g22
Ntp304
Rp305
(lp306
I6
aI103703894
ababag20
(g47
g22
Ntp307
Rp308
(lp309
(F0.18856825810599184
F-0.7215393018184661
F1.6561688744776544
F3.4684863314988528
F-0.5525985088664231
F1.940035420876202
tp310
a(F0.47483080883348544
F-0.6988977142424052
F0.8958555175858413
F-0.2811456659341384
F-1.0427391574557379
F0.30319617544290967
tp311
a(F-0.06006427726194402
F1.2419701846871913
F-2.427394122581021
F1.5953675585113802
F1.238837946914619
F-0.022446235628934115
tp312
a(tag20
(g52
g22
Ntp313
Rp314
(lp315
I6
aI126085733
ababag20
(g47
g22
Ntp316
Rp317
(lp318
(F0.19949520213298647
F-0.7373206255147954
F1.676178917095509
F3.462424761248736
F-0.5763046146725358
F1.9470168222278712
tp319
a(F0.49159910645092975
F-0.6966145388795408
F0.8734466681655599
F-0.2544404358891832
F-1.0534973678056863
F0.3143300531297024
tp320
a(F1.548509244578099
F-1.0490238121751971
F0.45776177504607196
F0.7619846517256803
F-2.2031280568265177
F1.0106139847279547
tp321
a(tag20
(g52
g22
Ntp322
Rp323
(lp324
I6
aI149131129
ababag20
(g47
g22
Ntp325
Rp326
(lp327
(F0.21071024621782375
F-0.7529284246448215
F1.695535769448331
F3.4570082791534853
F-0.6000615566346063
F1.9541928452644108
tp328
a(F0.5274458064937468
F-0.7203508046722934
F0.8829982963448539
F-0.2358725905424009
F-1.1037804821006167
F0.3377975233257359
tp329
a(F1.7068220883894292
F-1.1054495595781417
F0.40758897827053825
F0.9260369601996937
F-2.361799097894199
F1.1206704374484957
tp330
a(tag20
(g52
g22
Ntp331
Rp332
(lp333
I6
aI171162470
ababag20
(g47
g22
Ntp334
Rp335
(lp336
(F0.22221712999390839
F-0.7683652948078833
F1.7142428449339142
F3.4522462617644267
F-0.623866956997734
F1.9615685771241063
tp337
a(F0.5628817772703061
F-0.7412363942844618
F0.8873913226948286
F-0.2136143413812896
F-1.1506007177024085
F0.3611815742258052
tp338
a(F1.645065863898594
F-0.8660847827387858
F-1.0718435551072286e-14
F1.1852931756820546
F-2.062602216868544
F1.0914558728269999
tp339
a(tag20
(g52
g22
Ntp340
Rp341
(lp342
I6
aI192243447
ababag20
(g47
g22
Ntp343
Rp344
(lp345
(F0.23401928750489207
F-0.7836329916952818
F1.732302414118217
F3.448148791748163
F-0.6477179771613346
F1.9691491717003817
tp346
a(F0.5982854643545676
F-0.7598420959488947
F0.8873913226948285
F-0.1878676544450526
F-1.1947906831719997
F0.3847519374440247
tp347
a(F1.8375777153498378
F-0.9640924434640016
F5.554681135285454e-15
F1.347799025694121
F-2.2840050883333842
F1.227286619247031
tp348
a(tag20
(g52
g22
Ntp349
Rp350
(lp351
I6
aI212594749
ababag20
(g47
g22
Ntp352
Rp353
(lp354
(F0.24611981080205675
F-0.7987324495850819
F1.7497157102276568
F3.444726570396303
F-0.6716112795318541
F1.9769398420538025
tp355
a(F0.6174760745855126
F-0.7569520938815184
F0.8616770450227098
F-0.15539659506318926
F-1.2053858437023748
F0.39808500333589236
tp356
a(F0.08332856839446863
F1.262558093074372
F-2.59213178604506
F1.9154715374186242
F1.2328699899152356
F0.10766783790187909
tp357
a(tag20
(g52
g22
Ntp358
Rp359
(lp360
I6
aI232217767
ababag20
(g47
g22
Ntp361
Rp362
(lp363
(F0.2585214120703756
F-0.8136637949959522
F1.7664830263636675
F3.441990831378753
F-0.6955429882143042
F1.9849458516203882
tp364
a(F0.6194760820393246
F-0.7327959572476586
F0.8117387545915681
F-0.11796616451788841
F-1.1819499677466125
F0.4005162700997823
tp365
a(F0.11580923701716908
F1.147988238260016
F-2.3908457331762216
F1.8188646193674087
F1.1059677538978105
F0.13454304459395916
tp366
a(tag20
(g52
g22
Ntp367
Rp368
(lp369
I6
aI252275259
ababag20
(g47
g22
Ntp370
Rp371
(lp372
(F0.2712263844805647
F-0.8284263564873587
F1.7826038058388733
F3.4399532550791725
F-0.7195086487782981
F1.9931725041221808
tp373
a(F0.6191337631802332
F-0.7069448623508402
F0.7610219799438942
F-0.08127517755038469
F-1.1549055313951366
F0.40157095586841607
tp374
a(F-0.14596622822274127
F1.3694005317219569
F-2.551334684817391
F1.75871371841324
F1.5253241205188335
F-0.029709725115538523
tp375
a(tag20
(g52
g22
Ntp376
Rp377
(lp378
I6
aI272745707
ababag20
(g47
g22
Ntp379
Rp380
(lp381
(F0.2842365620103688
F-0.8430186715181486
F1.7980767267913245
F3.438625882951818
F-0.7435031873884625
F2.0016251321079754
tp382
a(F0.6135055700884893
F-0.6762989548314132
F0.7064273136761565
F-0.04534590716730383
F-1.1190760906263952
F0.39932660878362575
tp383
a(F-0.3832931326393059
F1.5309566404231731
F-2.6191551006433245
F1.6465998919138622
F1.8631698383271045
F-0.18042470066630933
tp384
a(tag20
(g52
g22
Ntp385
Rp386
(lp387
I6
aI293810793
ababag20
(g47
g22
Ntp388
Rp389
(lp390
(F0.29755327852619423
F-0.8574384912323151
F1.812899782019541
F3.438021031534327
F-0.7675208696393624
F2.0103090840306392
tp391
a(F0.6038850942775796
F-0.6427457086213273
F0.6503531269093407
F-0.010980786995868092
F-1.0773457966046647
F0.39459524684641867
tp392
a(F-0.4937593665707399
F1.53534236585127
F-2.5075579261934915
F1.4968933384334957
F1.9488366564763309
F-0.2506024052728838
tp393
a(tag20
(g52
g22
Ntp394
Rp395
(lp396
I6
aI315663218
ababag20
(g47
g22
Ntp397
Rp398
(lp399
(F0.3111773264667235
F-0.8716827839971123
F1.827070354801709
F3.4381512058435764
F-0.7915552594955912
F2.01922970977648
tp400
a(F0.6033167466094878
F-0.6198489092754786
F0.6062230379956355
F0.02202128177815864
F-1.052684597164018
F0.39592123378611255
tp401
a(F0.4326134602456458
F0.5053166753122251
F-1.4151024847813305
F1.4279009402247118
F0.2558704054514723
F0.3609617866677209
tp402
a(tag20
(g52
g22
Ntp403
Rp404
(lp405
I6
aI338431548
ababag20
(g47
g22
Ntp406
Rp407
(lp408
(F0.32510891552022514
F-0.8857477384992208
F1.8405852912948213
F3.4390290120953826
F-0.8155991787870204
F2.028392344530912
tp409
a(F0.599187182683278
F-0.5946864560860046
F0.5614318861585347
F0.05310693960260861
F-1.0231594310146703
F0.3950171294444632
tp410
a(F-0.7713092497348333
F1.649292927705061
F-2.4351845370188765
F1.2571429691547071
F2.2625611360587894
F-0.4274136977866806
tp411
a(tag20
(g52
g22
Ntp412
Rp413
(lp414
I6
aI361335688
ababag20
(g47
g22
Ntp415
Rp416
(lp417
(F0.33934763173753413
F-0.8996287671753249
F1.8534409699657952
F3.440667069800422
F-0.8396446677645396
F2.0378022908687288
tp418
a(F0.5786048871197406
F-0.55456336088611
F0.5040864592549104
F0.08094320164498893
F-0.9668970369746028
F0.3833634885144206
tp419
a(F-0.9251820232624579
F1.6658762281278718
F-2.307276152115816
F1.0490510862995024
F2.3833524579764265
F-0.5326225204251112
tp420
a(tag20
(g52
g22
Ntp421
Rp422
(lp423
I6
aI385464280
ababag20
(g47
g22
Ntp424
Rp425
(lp426
(F0.3538923975730972
F-0.9133205107110914
F1.8656333683886315
F3.4430779232918005
F-0.8636829472907375
F2.047464798979981
tp427
a(F0.5533300818593168
F-0.5121241425393277
F0.4470743742115342
F0.10506582659376074
F-0.9050517458603058
F0.3686033695467159
tp428
a(F-1.0353334494384865
F1.633217567581205
F-2.129092307848909
F0.8326841336060467
F2.4214852136669
F-0.6118007310125372
tp429
a(tag20
(g52
g22
Ntp430
Rp431
(lp432
I6
aI411112272
ababag20
(g47
g22
Ntp433
Rp434
(lp435
(F0.3687414333907737
F-0.9268168443241496
F1.8771581276170832
F3.4462739529547064
F-0.8877043832807199
F2.0573850449072086
tp436
a(F0.5214167718826819
F-0.46600240332081955
F0.38963123038997227
F0.12439042492262521
F-0.8349392967157061
F0.34936151176214997
tp437
a(F-1.2599770799089147
F1.6946011014595463
F-2.022944466218995
F0.573118681806226
F2.6325947770623994
F-0.7711746252966698
tp438
a(tag20
(g52
g22
Ntp439
Rp440
(lp441
I6
aI438632484
ababag20
(g47
g22
Ntp442
Rp443
(lp444
(F0.3838922210117759
F-0.9401108865018069
F1.8880106142409814
F3.450267286487458
F-0.9116984540579492
F2.067568106679847
tp445
a(F0.48169944675232823
F-0.4156406785066138
F0.3317733867369699
F0.13784012932933526
F-0.7552433199370057
F0.32475738673383137
tp446
a(F-1.35461911801372
F1.6299356543736503
F-1.8036720226994132
F0.3262023720001251
F2.6237234021490354
F-0.8476280621812954
tp447
a(tag20
(g52
g22
Ntp448
Rp449
(lp450
I6
aI468737464
ababag20
(g47
g22
Ntp451
Rp452
(lp453
(F0.39934146991623953
F-0.9531950108099977
F1.898185980145243
F3.4550697105708945
F-0.9356537213347128
F2.078018938238646
tp454
a(F0.4945352374402627
F-0.4109722989959048
F0.3110010638898029
F0.16597220975725063
F-0.7582882290228643
F0.3357680721085299
tp455
a(F2.172491034134869
F-1.343880385553576
F0.5015695496669431
F1.44861493793082
F-2.830109971130706
F1.5475185974825938
tp456
a(tag20
(g52
g22
Ntp457
Rp458
(lp459
I6
aI502313027
ababag20
(g47
g22
Ntp460
Rp461
(lp462
(F0.4150850867360478
F-0.9660608613222179
F1.9076792199158743
F3.4606925833376576
F-0.9595578055687513
F2.08874234105058
tp463
a(F0.55952736783104
F-0.44871488662257797
F0.3215300507853186
F0.21323257567940287
F-0.8402748227160994
F0.3825822076261487
tp464
a(F2.1492025679931954
F-1.1565813115151529
F0.18172699092951827
F1.7087515630536831
F-2.6115656134270178
F1.5673682960203352
tp465
a(tag20
(g52
g22
Ntp466
Rp467
(lp468
I6
aI532077676
ababag20
(g47
g22
Ntp469
Rp470
(lp471
(F0.4311181486888532
F-0.978699372151385
F1.9164852257594711
F3.467146748160535
F-0.9833973664555562
F2.0997429333053246
tp472
a(F0.6209876864545645
F-0.4803083635807762
F0.3241287391505568
F0.26450952584555104
F-0.91334652050758
F0.42780861367475864
tp473
a(F2.3654766357132924
F-1.1594784926051724
F0.0009258095989612091
F2.065538600838553
F-2.7509409515746355
F1.7561026570637204
tp474
a(tag20
(g52
g22
Ntp475
Rp476
(lp477
I6
aI559246924
ababag20
(g47
g22
Ntp478
Rp479
(lp480
(F0.44743488160566963
F-0.9911007914706738
F1.9245988397527536
F3.4744424492431447
F-1.0071580893332266
F2.111025116606563
tp481
a(F0.6426075880186253
F-0.47966782152067355
F0.30360015161233067
F0.3012077796185318
F-0.92628152856087
F0.44612768757460297
tp482
a(F-0.7222059254125465
F1.2314348013807506
F-1.60377491693549
F0.7606966459413261
F1.793064797771073
F-0.35902116854003574
tp483
a(tag20
(g52
g22
Ntp484
Rp485
(lp486
I6
aI584278063
ababag20
(g47
g22
Ntp487
Rp488
(lp489
(F0.46402864319376047
F-1.0032547103000022
F1.932014903204604
F3.482589249437293
F-1.0308246782868402
F2.122593040088771
tp490
a(F0.6146884789125011
F-0.4421645832415738
F0.26016969428632203
F0.31464271614309475
F-0.8679456770179061
F0.43031218356535395
tp491
a(F-1.3704049974367096
F1.5951742408889094
F-1.68020548007962
F0.27101997910363856
F2.5963646186950244
F-0.8233940703008856
tp492
a(tag20
(g52
g22
Ntp493
Rp494
(lp495
I6
aI610477727
ababag20
(g47
g22
Ntp496
Rp497
(lp498
(F0.48089191214445676
F-1.01515009623418
F1.9387283028700883
F3.4915959508173953
F-1.054380856692811
F2.1344505618942153
tp499
a(F0.5732164342757664
F-0.39704649379383683
F0.215158110243889
F0.31786223501255406
F-0.7928086364124425
F0.40482125448920714
tp500
a(F-1.5354087306972664
F1.5747297926260648
F-1.4895582449499551
F-0.031825109836124174
F2.6776356855466776
F-0.9611086274826429
tp501
a(tag20
(g52
g22
Ntp502
Rp503
(lp504
I6
aI638770893
ababag20
(g47
g22
Ntp505
Rp506
(lp507
(F0.49801628365293604
F-1.0267753321535702
F1.9447340137552003
F3.501470518405232
F-1.0778093759251604
F2.146601207981934
tp508
a(F0.5215462038749387
F-0.34763671120080103
F0.17155790975468083
F0.31108852799431713
F-0.706595591278864
F0.37173173208506105
tp509
a(F-1.7395135211996686
F1.568113224505344
F-1.29425749101491
F-0.37969300591386146
F2.7988179099193533
F-1.1338165277567795
tp510
a(tag20
(g52
g22
Ntp511
Rp512
(lp513
I6
aI669882712
ababag20
(g47
g22
Ntp514
Rp515
(lp516
(F0.5153924718549765
F-1.038118259829667
F1.9500271382544208
F3.5122200073885836
F-1.1010920328921383
F2.1590481282657286
tp517
a(F0.53272070559011
F-0.34039357032997863
F0.14942027315051515
F0.34144943183377574
F-0.7058562638579291
F0.38364523685361496
tp518
a(F2.425750579462355
F-1.1376918252452404
F-0.03993639447365831
F2.22098778471499
F-2.7689669678688773
F1.8615898288281025
tp519
a(tag20
(g52
g22
Ntp520
Rp521
(lp522
I6
aI705151515
ababag20
(g47
g22
Ntp523
Rp524
(lp525
(F0.5330103196026149
F-1.0491662282157341
F1.9546029413705184
F3.523850494193838
F-1.1242096969748312
F2.171794050111029
tp526
a(F0.6090830283371719
F-0.37376499027404275
F0.14405994985648823
F0.4153549404395058
F-0.790405295980996
F0.4430809315064672
tp527
a(F2.487088158751828
F-0.9991731493058151
F-0.32191419667846727
F2.550306791226627
F-2.6597322720664676
F1.9657085073469907
tp528
a(tag20
(g52
g22
Ntp529
Rp530
(lp531
I6
aI735910934
ababag20
(g47
g22
Ntp532
Rp533
(lp534
(F0.5508588159064154
F-1.05990614607846
F1.9584568818082773
F3.5363670116330734
F-1.1471423468612751
F2.1848412292693697
tp535
a(F0.6633277096980823
F-0.3905979891709826
F0.12864757274937186
F0.4790538641844348
F-0.8430951603558692
F0.4875866778434128
tp536
a(F1.3234283723312006
F-0.16550062192727
F-0.7908579003942308
F1.9533087664448223
F-1.0224781399156535
F1.1665354171498825
tp537
a(tag20
(g52
g22
Ntp538
Rp539
(lp540
I6
aI763565727
ababag20
(g47
g22
Ntp541
Rp542
(lp543
(F0.5689261212601787
F-1.0703245385103433
F1.9615846387800586
F3.5497734882855374
F-1.1698691176562355
F2.198191398377501
tp544
a(F0.7078906427367213
F-0.39907158630705025
F0.10715356349990916
F0.5401433232033718
F-0.8806666733975517
F0.5261206165729453
tp545
a(F2.073099502264321
F-0.4850001923089049
F-0.839146153752097
F2.695335015134229
F-1.8462148329815766
F1.7692734294872936
tp546
a(tag20
(g52
g22
Ntp547
Rp548
(lp549
I6
aI790086462
ababag20
(g47
g22
Ntp550
Rp551
(lp552
(F0.5871996009360476
F-1.080407606764221
F1.9639821344126023
F3.5640726922604307
F-1.1923683584995308
F2.211845713208138
tp553
a(F0.7571233921130404
F-0.4081488358559221
F0.08330339546699288
F0.608152769121489
F-0.9219218301092328
F0.5691288699852425
tp554
a(F1.8610929608374642
F-0.23435829090146115
F-1.076371705528293
F2.7491452741719793
F-1.4441165320256515
F1.6699570950189233
tp555
a(tag20
(g52
g22
Ntp556
Rp557
(lp558
I6
aI814964273
ababag20
(g47
g22
Ntp559
Rp560
(lp561
(F0.6056658662046077
F-1.0901412907625028
F1.965645551720826
F3.5792661793829725
F-1.214617700795727
F2.2258046969272978
tp562
a(F0.7955473960978251
F-0.40937624420972285
F0.0552620325604852
F0.6708182608678015
F-0.9479039131841711
F0.6050551267413131
tp563
a(F1.3569588137718034
F0.13867744781840177
F-1.2835886518467985
F2.5107969296202235
F-0.7243577222916839
F1.3417598630411753
tp564
a(tag20
(g52
g22
Ntp565
Rp566
(lp567
I6
aI838647548
ababag20
(g47
g22
Ntp568
Rp569
(lp570
(F0.6243108232896735
F-1.0995113335772762
F1.9665713481842504
F3.5953542458499737
F-1.236594136986718
F2.240068182689189
tp571
a(F0.8278498105244555
F-0.40570273366214027
F0.024294469837421916
F0.7312028403919153
F-0.9647785747685722
F0.6373081173030263
tp572
a(F1.455936754019759
F0.18169799437908016
F-1.4136054443602948
F2.748297599823947
F-0.7446072213972483
F1.4672396650206072
tp573
a(tag20
(g52
g22
Ntp574
Rp575
(lp576
I6
aI861626942
ababag20
(g47
g22
Ntp577
Rp578
(lp579
(F0.6431197297213459
F-1.1085033471431385
F1.9667562650412107
F3.612335885381964
F-1.258274109631408
F2.254635254983819
tp580
a(F0.8298367521001981
F-0.38675365578957827
F-0.007869252487900952
F0.765498887755991
F-0.9459307705873075
F0.6467059739003602
tp581
a(F-1.2726889137559003
F1.4842252305602595
F-1.420681060015238
F0.28128728156793614
F2.396111599943624
F-0.6328115270334939
tp582
a(tag20
(g52
g22
Ntp583
Rp584
(lp585
I6
aI883903867
ababag20
(g47
g22
Ntp586
Rp587
(lp588
(F0.6620772576064335
F-1.1171028784586878
F1.9661973324953825
F3.630208750904242
F-1.2796336103862644
F2.269504190241862
tp589
a(F0.8298367521001979
F-0.3661004728267948
F-0.04088851391359079
F0.7992152707083127
F-0.9240457940284308
F0.6551799665372575
tp590
a(F1.2634399393421631
F0.32793473815105695
F-1.469588326513631
F2.661504866004675
F-0.4698874850260256
F1.3673156180159096
tp591
a(tag20
(g52
g22
Ntp592
Rp593
(lp594
I6
aI907154621
ababag20
(g47
g22
Ntp595
Rp596
(lp597
(F0.6811675631944469
F-1.1252954755571853
F1.9648918710986856
F3.6489691208516537
F-1.3006482882964785
F2.2846723972982668
tp598
a(F0.8571143014699101
F-0.35715700710744797
F-0.07539193700269585
F0.8596905817327809
F-0.9322451910419904
F0.6856218779862306
tp599
a(F1.1449619149266028
F0.4639685118943748
F-1.5801735044305485
F2.6816683977588376
F-0.2516951102492931
F1.3215947438388567
tp600
a(tag20
(g52
g22
Ntp601
Rp602
(lp603
I6
aI929764829
ababag20
(g47
g22
Ntp604
Rp605
(lp606
(F0.7003743619875564
F-1.1330667525759348
F1.9628374896372425
F3.668611870265041
F-1.3212935666317531
F2.3001363584160073
tp607
a(F0.8786487653052755
F-0.3445720890545969
F-0.11099560681581279
F0.9163731807986819
F-0.9329315386441622
F0.7122719973253405
tp608
a(F0.7977551555915505
F0.6753661859603881
F-1.637878951524868
F2.438380160980507
F0.19396718531096832
F1.0844845963920977
tp609
a(tag20
(g52
g22
Ntp610
Rp611
(lp612
I6
aI951843990
ababag20
(g47
g22
Ntp613
Rp614
(lp615
(F0.7196810085288772
F-1.14040245332442
F1.960032079898296
F3.689130446932871
F-1.3415447673396508
F2.3158915716696713
tp616
a(F0.8963096054879114
F-0.3293278094836616
F-0.1475338261620298
F0.9707740143178395
F-0.9283556398851218
F0.7365243212945396
tp617
a(F0.8262225106622381
F0.7266021867657062
F-1.7221337489683217
F2.564261337995139
F0.22699761558953704
F1.1457719265909718
tp618
a(tag20
(g52
g22
Ntp619
Rp620
(lp621
I6
aI973600622
ababag20
(g47
g22
Ntp622
Rp623
(lp624
(F0.73907057990556
F-1.1472885128408192
F1.9564738087243174
F3.7105168529690276
F-1.361377242026067
F2.3319324955875267
tp625
a(F0.8875670480983581
F-0.3043289780269291
F-0.17947795281402568
F0.9965404855084465
F-0.896427698106294
F0.7393030701872145
tp626
a(F-1.6134343245421419
F1.5673005859527596
F-1.220098264191209
F-0.17469945200824583
F2.6929842358615557
F-0.8759969397530031
tp627
a(tag20
(g52
g22
Ntp628
Rp629
(lp630
I6
aI995020169
ababag20
(g47
g22
Ntp631
Rp632
(lp633
(F0.758525961926332
F-1.1537111165257259
F1.9521611077671046
F3.732761632371363
F-1.3807665082207203
F2.34825249704495
tp634
a(F0.8529344876331566
F-0.2710050414075106
F-0.20503636273996848
F0.9921939133976788
F-0.8389817728729905
F0.7204183773661662
tp635
a(F-1.4856174369628399
F1.4152710344555752
F-1.0681944085001753
F-0.21308540953198024
F2.448193444934508
F-0.8137179267374959
tp636
a(tag20
(g52
g22
Ntp637
Rp638
(lp639
I7
aI17385088
ababag20
(g47
g22
Ntp640
Rp641
(lp642
(F0.778029936884663
F-1.159656756540312
F1.9470926613449402
F3.7558538652234907
F-1.399688389576166
F2.364843803479095
tp643
a(F0.8156763283007309
F-0.23848062437724138
F-0.22720892399314774
F0.9819852505100385
F-0.7807152800569154
F0.6986633138331739
tp644
a(F-1.6943539753458081
F1.3661057858533612
F-0.8326667644053103
F-0.6493272159167925
F2.530558605169866
F-1.0406057668394133
tp645
a(tag20
(g52
g22
Ntp646
Rp647
(lp648
I7
aI40716241
ababag20
(g47
g22
Ntp649
Rp650
(lp651
(F0.7975652717915563
F-1.1651122852520288
F1.9412673927616262
F3.7797811693691488
F-1.4181191585344775
F2.3816974605633345
tp652
a(F0.7723415722945125
F-0.20597514712039383
F-0.24474451636878286
F0.9613856658353384
F-0.7185601207961827
F0.6709177652065212
tp653
a(F-1.8201547635573152
F1.2753181801238327
F-0.5975047489554861
F-1.012823330457357
F2.5157775309476693
F-1.2071874074366036
tp654
a(tag20
(g52
g22
Ntp655
Rp656
(lp657
I7
aI65276944
ababag20
(g47
g22
Ntp658
Rp659
(lp660
(F0.8171148059606762
F-1.170064965591744
F1.934684449376042
F3.80452971053853
F-1.4360356799021505
F2.398803296529504
tp661
a(F0.7206265026810477
F-0.1734583060833283
F-0.2560966887290138
F0.9265986578373664
F-0.650977826030311
F0.634852886963534
tp662
a(F-2.1102158709167855
F1.2048584229582953
F-0.27869997209553177
F-1.6166507665093626
F2.6298183934335126
F-1.5295435451923167
tp663
a(tag20
(g52
g22
Ntp664
Rp665
(lp666
I7
aI91367575
ababag20
(g47
g22
Ntp667
Rp668
(lp669
(F0.8366615368628948
F-1.174502518241284
F1.9273431866309005
F3.83008422195056
F-1.4534155537598474
F2.416149894334979
tp670
a(F0.6531338188958452
F-0.14005810777427538
F-0.2573514603561608
F0.8666952953441296
F-0.572224357362831
F0.5834793599746282
tp671
a(F-2.586859377183376
F1.1348261080180666
F0.16865302364489762
F-2.5279368110200586
F2.8668341400748067
F-2.0384604015621743
tp672
a(tag20
(g52
g22
Ntp673
Rp674
(lp675
I7
aI119615940
ababag20
(g47
g22
Ntp676
Rp677
(lp678
(F0.8561887032078556
F-1.1784131656069696
F1.9192431511158492
F3.856428034586631
F-1.4702372560403332
F2.4337245728798544
tp679
a(F0.6330826366327473
F-0.11790743198123212
F-0.2755506216475856
F0.8677918281536777
F-0.5362118353363456
F0.5739042709411867
tp680
a(F1.217396009808164
F0.3318738262704609
F-1.344208543005987
F2.53131630619118
F-0.454902019538657
F1.3629812819388167
tp681
a(tag20
(g52
g22
Ntp682
Rp683
(lp684
I7
aI151403202
ababag20
(g47
g22
Ntp685
Rp686
(lp687
(F0.8756798642924566
F-1.1817856725304055
F1.9103840626193769
F3.8835431192840457
F-1.4864802751515092
F2.4515133784224226
tp688
a(F0.6584085522219976
F-0.10469041162216397
F-0.31264808198273747
F0.9300429327401812
F-0.5391998297596242
F0.6051177073363718
tp689
a(F0.44313688241267485
F0.5478255302479187
F-1.107103870613948
F1.5701841571673398
F0.27243192958342655
F0.6895107044164198
tp690
a(tag20
(g52
g22
Ntp691
Rp692
(lp693
I7
aI181304162
ababag20
(g47
g22
Ntp694
Rp695
(lp696
(F0.8951189747496904
F-1.1846093836560487
F1.9007657949732477
F3.911410141780806
F-1.5021252430442862
F2.469501087259977
tp697
a(F0.627538853178817
F-0.08279347691825036
F-0.3225727504053649
F0.912227753917968
F-0.4964993534249771
F0.5844161370587431
tp698
a(F-2.411916583441541
F0.8893392398393596
F0.4152327789945329
F-2.6444218321754343
F2.4926179340422894
F-1.991301978037778
tp699
a(tag20
(g52
g22
Ntp700
Rp701
(lp702
I7
aI210537677
ababag20
(g47
g22
Ntp703
Rp704
(lp705
(F0.9144904539357759
F-1.1868742573122748
F1.8903883553269478
F3.940008531796719
F-1.5171540591467816
F2.487671220627115
tp706
a(F0.5509968323989106
F-0.05700993106980486
F-0.3058323524935792
F0.8244802235547897
F-0.41992914676652043
F0.5200407716724647
tp707
a(F-2.2193557512596853
F0.6799387265776354
F0.5842125396896622
F-2.6504036688159607
F2.1499237981970256
F-1.8993500256941342
tp708
a(tag20
(g52
g22
Ntp709
Rp710
(lp711
I7
aI243364128
ababag20
(g47
g22
Ntp712
Rp713
(lp714
(F0.9337792493214571
F-1.1885708956681351
F1.8792518613368185
F3.969316567044717
F-1.5315500056981322
F2.506006072591062
tp715
a(F0.4662875719445436
F-0.03478442109585342
F-0.2781459064820211
F0.7176391637128808
F-0.3416990230602091
F0.4458374304353244
tp716
a(F-2.189078519782536
F0.49171344870838374
F0.834966302067874
F-2.886962456174029
F1.936728988667339
F-1.9554632619582084
tp717
a(tag20
(g52
g22
Ntp718
Rp719
(lp720
I7
aI281046707
ababag20
(g47
g22
Ntp721
Rp722
(lp723
(F0.9529708933780053
F-1.1896905708146248
F1.8673565155891116
F3.999311472896033
F-1.5452978530893668
F2.524486751526202
tp724
a(F0.37453303488278594
F-0.016872903529896236
F-0.2392620762499947
F0.5925620909369926
F-0.26328501403310406
F0.36266036925806977
tp725
a(F-1.7803187476912736
F0.2958350486221317
F0.8289302319057005
F-2.50487728962069
F1.4685253929943924
F-1.6371580269697603
tp726
a(tag20
(g52
g22
Ntp727
Rp728
(lp729
I7
aI326665125
ababag20
(g47
g22
Ntp730
Rp731
(lp732
(F0.9720515535853835
F-1.190225246288994
F1.8547025764323397
F4.029969538137942
F-1.558383953964292
F2.543093235503099
tp733
a(F0.22696671436946123
F-0.004409776009760541
F-0.153304277295713
F0.3674570952163949
F-0.15371132262891096
F0.2220740938891803
tp734
a(F-1.9399679162808674
F0.09167343742863973
F1.233284297031437
F-3.063959511909347
F1.3677849844017784
F-1.8774514213694824
tp735
a(tag20
(g52
g22
Ntp736
Rp737
(lp738
I7
aI384772923
ababag20
(g47
g22
Ntp739
Rp740
(lp741
(F0.9910080753257354
F-1.1901675934259923
F1.84129032426322
F4.0612662469457215
F-1.5707963249958927
F2.56180444165082
tp742
a(F0.1053577970949033
F-0.04251242108448514
F-0.032717348515186664
F-0.020478140230663924
F-0.284189136037596
F0.0990040290122054
tp743
a(F-0.27462632944303866
F-0.5829031811060953
F0.7626931284204473
F-3.0954443785044257
F-2.74463360674208
F-0.3388875337170125
tp744
a(tag20
(g52
g22
Ntp745
Rp746
(lp747
I7
aI535740518
ababag20
(g47
g22
Ntp748
Rp749
(lp750
(F1.0032168650706659
F-1.2024133703092208
F1.8446464967347813
F4.0256697274113575
F-1.6405027829022079
F2.5724241902172182
tp751
a(F0.10816221577843407
F-0.10043674279461291
F0.026861959689217504
F-0.31230060649935
F-0.6204305574268368
F0.07776324726030796
tp752
a(F0.3884150481164581
F-0.2536726756024365
F0.05830803480267318
F-1.0807977755389115
F-2.2661924944284064
F0.06239801933021236
tp753
a(tag20
(g52
g22
Ntp754
Rp755
(lp756
I7
aI679122389
ababag20
(g47
g22
Ntp757
Rp758
(lp759
(F1.0154970899859916
F-1.2132229799874525
F1.8474846433253884
F3.9904382774122364
F-1.7111554133497835
F2.5800502304909743
tp760
a(F0.15135538221246836
F-0.12301479195066684
F0.031877486573736714
F-0.435790381788158
F-0.8770761560631934
F0.07255889789059035
tp761
a(F0.48891644969539794
F-0.18287467928877194
F0.03781517315337677
F-1.440431593397944
F-2.964903668298908
F-0.21566430662212457
tp762
a(tag20
(g52
g22
Ntp763
Rp764
(lp765
I7
aI772739030
ababag20
(g47
g22
Ntp766
Rp767
(lp768
(F1.0277585642914293
F-1.2225557215900225
F1.84987484018569
F3.95503786762857
F-1.7825969951311877
F2.5846005217123564
tp769
a(F0.18572916616629132
F-0.12950234451936954
F0.03312494412555801
F-0.5449739690100149
F-1.092644287028152
F0.0426712393492432
tp770
a(F0.4293019086856513
F0.032074548641161466
F-0.0094770208758224
F-1.504112852023265
F-2.818656184502981
F-0.6347327094660661
tp771
a(tag20
(g52
g22
Ntp772
Rp773
(lp774
I7
aI844219877
ababag20
(g47
g22
Ntp775
Rp776
(lp777
(F1.0399082331175564
F-1.2303613480360847
F1.8518688562020877
F3.918896672416872
F-1.8546623448451993
F2.585918354768531
tp778
a(F0.2111877092714302
F-0.12209824986646259
F0.03157339465128753
F-0.6467034241357135
F-1.2682257987315395
F-0.009271997601356524
tp779
a(F0.3936607166905333
F0.22169068331413633
F-0.04327181597527933
F-1.8172058167302283
F-2.8792177586657117
F-1.0818565410927186
tp780
a(tag20
(g52
g22
Ntp781
Rp782
(lp783
I7
aI904991548
ababag20
(g47
g22
Ntp784
Rp785
(lp786
(F1.0518510415705984
F-1.2365758766896073
F1.8534974637207262
F3.881385391279076
F-1.9271728517795563
F2.5837585780337218
tp787
a(F0.22991314405060176
F-0.10416326667524514
F0.028096829915431408
F-0.753061652820572
F-1.4171813682871477
F-0.08119131853143421
tp788
a(F0.2905259386712241
F0.45136233851503993
F-0.08716044320082883
F-2.116730098406057
F-2.5921113817179116
F-1.5950529722256528
tp789
a(tag20
(g52
g22
Ntp790
Rp791
(lp792
I7
aI958678628
ababag20
(g47
g22
Ntp793
Rp794
(lp795
(F1.063491004337687
F-1.2411152657321531
F1.8547654692957394
F3.8417923961733953
F-1.999930508708041
F2.5777686070879438
tp796
a(F0.24223914410082278
F-0.0765254839686819
F0.022581296320614237
F-0.8708198769162667
F-1.5417847053365383
F-0.1743562891927501
tp797
a(F0.20586530000195838
F0.6790070116968349
F-0.13867445724449126
F-2.6827317280266723
F-2.4557915996044573
F-2.2089650111510655
tp798
a(tag20
(g52
g22
Ntp799
Rp800
(lp801
I8
aI7714992
ababag20
(g47
g22
Ntp802
Rp803
(lp804
(F1.0747323462790217
F-1.2438665989467352
F1.8556436583408717
F3.799292625624766
F-2.072710044353917
F2.5674619166987753
tp805
a(F0.24377799620723145
F-0.03929374388711664
F0.014264564809420378
F-0.9859401101511627
F-1.6112874211255552
F-0.28419936396039736
tp806
a(F-0.1475145595207967
F0.9395564197220663
F-0.22350108858626672
F-2.2938150314028616
F-0.5085557826446039
F-2.5563180362468167
tp807
a(tag20
(g52
g22
Ntp808
Rp809
(lp810
I8
aI53207308
ababag20
(g47
g22
Ntp811
Rp812
(lp813
(F1.0854806835744697
F-1.244676055675114
F1.8560560217960316
F3.752908542196289
F-2.14524812421155
F2.552181476204785
tp814
a(F0.2266592899597101
F0.005012359048698362
F0.0025557426138842414
F-1.057586790733492
F-1.5651581067778728
F-0.39221130373799834
tp815
a(F-0.5967778523256029
F1.0003951517982215
F-0.2885675445170476
F-0.8621292300351217
F2.4920925824060083
F-2.1794863158782416
tp816
a(tag20
(g52
g22
Ntp817
Rp818
(lp819
I8
aI97907897
ababag20
(g47
g22
Ntp820
Rp821
(lp822
(F1.0956442139954259
F-1.2433328120739866
F1.8558596174910982
F3.7014616873316974
F-2.2172281210707214
F2.5310499313643042
tp823
a(F0.19827678885471334
F0.05069158635939251
F-0.012186485573547392
F-1.0995219698495071
F-1.4411559173552422
F-0.493675613819911
tp824
a(F-0.5870415593279852
F0.9076602437284064
F-0.32482295352581403
F-0.8855909990479224
F2.671900360179311
F-2.0557662387459845
tp825
a(tag20
(g52
g22
Ntp826
Rp827
(lp828
I8
aI145653866
ababag20
(g47
g22
Ntp829
Rp830
(lp831
(F1.1051348857778394
F-1.2395481520214402
F1.8548128588898758
F3.64351472925979
F-2.288258274371986
F2.5029030083130372
tp832
a(F0.16892896025883375
F0.09503191593810915
F-0.030313458532444597
F-1.1450579387406035
F-1.3014541806755984
F-0.5962661678621299
tp833
a(F-0.5449563294955282
F0.8043296740300561
F-0.3712601374141428
F-0.868734592294589
F2.7065651208365558
F-1.9016345672730146
tp834
a(tag20
(g52
g22
Ntp835
Rp836
(lp837
I8
aI197321551
ababag20
(g47
g22
Ntp838
Rp839
(lp840
(F1.1138695171226425
F-1.2329300162388663
F1.8525258222942305
F3.577308100521823
F-2.3578401130773887
F2.4662036637724984
tp841
a(F0.13948219905688436
F0.1371709874246191
F-0.05293403720934127
F-1.189170959104061
F-1.1469627529306614
F-0.6971010968743441
tp842
a(F-0.4897735840510302
F0.6787713451450801
F-0.419007787184717
F-0.6864340317045584
F2.707307997860445
F-1.6450528967978222
tp843
a(tag20
(g52
g22
Ntp844
Rp845
(lp846
I8
aI253976983
ababag20
(g47
g22
Ntp847
Rp848
(lp849
(F1.1217701228212578
F-1.2229569786389154
F1.8483790090177339
F3.500718874588651
F-2.425313350096895
F2.4189469963235384
tp850
a(F0.10954549974188935
F0.17307135295512535
F-0.07959044726864775
F-1.207973093722097
F-0.9675739490112378
F-0.7802686942079169
tp851
a(F-0.44352939223473703
F0.4521216826369391
F-0.4098472309835362
F0.051918703883227
F2.8562584399243702
F-0.9840634438603915
tp852
a(tag20
(g52
g22
Ntp853
Rp854
(lp855
I8
aI317286528
ababag20
(g47
g22
Ntp856
Rp857
(lp858
(F1.1287673529350533
F-1.2089611024446107
F1.841427594216794
F3.411215368484072
F-2.489824524958477
F2.3585379130203026
tp859
a(F0.07763485620763191
F0.189384683390805
F-0.10343988315022218
F-1.13476928759723
F-0.7398741628348418
F-0.7950773424066795
tp860
a(F-0.38501812541029096
F0.01779564197502467
F-0.2255086190579704
F1.6502315342915785
F2.9924242601167137
F0.43952378031545747
tp861
a(tag20
(g52
g22
Ntp862
Rp863
(lp864
I8
aI391490126
ababag20
(g47
g22
Ntp865
Rp866
(lp867
(F1.1347980262876465
F-1.1901530939493417
F1.8302311576472636
F3.3060405436693596
F-2.550195323463616
F2.2817791018573588
tp868
a(F0.0474939462083097
F0.17791734299069928
F-0.11602865242890978
F-0.9506839915066907
F-0.4907164454816767
F-0.7165137315563848
tp869
a(F-0.21898798867733993
F-0.1988319318424711
F-0.04596779847080842
F1.8305754207138654
F1.9440632846599735
F0.9674212589106657
tp870
a(tag20
(g52
g22
Ntp871
Rp872
(lp873
I8
aI490399036
ababag20
(g47
g22
Ntp874
Rp875
(lp876
(F1.1398078526063364
F-1.1657519393155353
F1.8127258998861804
F3.182618179187725
F-2.6048454269879873
F2.1850209655235275
tp877
a(F0.033977463268477184
F0.2137757948798812
F-0.1733982961588017
F-1.0346641158836931
F-0.3871338926849336
F-0.8456755640263229
tp878
a(F-0.0005835182753183165
F0.7301655463802311
F-0.8280024601609063
F-2.9853756734352213
F-0.24394510176684128
F-2.8647923824588313
tp879
a(tag20
(g52
g22
Ntp880
Rp881
(lp882
I8
aI637677996
ababag20
(g47
g22
Ntp883
Rp884
(lp885
(F1.1437515934975566
F-1.135322241761297
F1.7862392414839994
F3.0395389449639185
F-2.651697870501214
F2.0648253065305373
tp886
a(F0.03024330699035528
F0.29878510296858485
F-0.2925240502687598
F-1.3692337080111687
F-0.3720811001020493
F-1.1959058820989517
tp887
a(F-0.06621596605664222
F0.6613740756255357
F-1.1571702775789872
F-2.4711589350283663
F0.5576007407510197
F-2.8940619559005625
tp888
a(tag20
(g52
g22
Ntp889
Rp890
(lp891
I8
aI753878761
ababag20
(g47
g22
Ntp892
Rp893
(lp894
(F1.1465935587182168
F-1.099385139912632
F1.7480100675361063
F2.878195195264729
F-2.6881981933306864
F1.9195098013443377
tp895
a(F0.01945872548245733
F0.3096325960995072
F-0.3640373233843382
F-1.3802015002948096
F-0.2549224765878646
F-1.2844370526089668
tp896
a(F-0.1154307861489103
F-0.4244409015341325
F-0.1128111546260755
F2.0672644116234475
F1.4009781000429775
F1.188614627753433
tp897
a(tag20
(g52
g22
Ntp898
Rp899
(lp900
I8
aI860930495
ababag20
(g47
g22
Ntp901
Rp902
(lp903
(F1.1483079868609416
F-1.0600835927121817
F1.6965953255417687
F2.704498819213429
F-2.711605217051909
F1.7516074257459295
tp904
a(F0.007018970121130724
F0.19859160626999398
F-0.27716573438751835
F-0.8828634749218384
F-0.09622405541109523
F-0.8709958104639248
tp905
a(F-0.04448845945013743
F-0.7065011408470371
F0.7798694281472758
F3.0794399932319414
F0.6041208473771049
F2.8305379284936243
tp906
a(tag20
(g52
g22
Ntp907
Rp908
(lp909
I8
aI999527665
ababag20
(g47
g22
Ntp910
Rp911
(lp912
(F1.1488793143662495
F-1.021169174669895
F1.6337911650982297
F2.528970665092927
F-2.7196756428993614
F1.5698904201720798
tp913
a(F0.0
F0.0
F0.0
F0.0
F0.0
F0.0
tp914
a(F-0.00974039762122567
F-0.6634406735349151
F1.0707299916493356
F2.992528801728505
F0.1375903592886624
F3.0980407426280134
tp915
a(tag20
(g52
g22
Ntp916
Rp917
(lp918
I9
aI342034484
ababaabag20
(g56
g22
Ntp919
Rp920
(lp921
g20
(g30
g22
Ntp922
Rp923
(lp924
I0
ag20
(g34
g22
Ntp925
Rp926
(lp927
I0
aI0
abag66
aba(lp928
a(lp929
ababsS'move'
p930
g20
(g21
g22
Ntp931
Rp932
(lp933
g20
(g26
g22
Ntp934
Rp935
(lp936
g20
(g30
g22
Ntp937
Rp938
(lp939
I0
ag20
(g34
g22
Ntp940
Rp941
(lp942
I0
aI0
abaS'world'
p943
aba(lp944
S'shoulder_pan_joint'
p945
aS'shoulder_lift_joint'
p946
aS'elbow_joint'
p947
aS'wrist_1_joint'
p948
aS'wrist_2_joint'
p949
aS'wrist_3_joint'
p950
aa(lp951
g20
(g47
g22
Ntp952
Rp953
(lp954
(F1.1488793143662495
F-1.021169174669895
F1.6337911650982297
F2.528970665092927
F-2.7196756428993614
F1.5698904201720798
tp955
a(F0.0
F0.0
F0.0
F0.0
F0.0
F0.0
tp956
a(F0.0
F0.0
F0.0
F0.0
F0.0
F0.0
tp957
a(tag20
(g52
g22
Ntp958
Rp959
(lp960
I0
aI0
ababag20
(g47
g22
Ntp961
Rp962
(lp963
(F1.163693799641783
F-1.041167146379549
F1.6689198378301167
F2.6058945476298345
F-2.732963605444754
F1.6544205608160722
tp964
a(F0.1146475967276081
F-0.1634254595099371
F0.2703189107691979
F0.6329082411266976
F-0.08660563251378342
F0.6840548715358397
tp965
a(F0.4241431380179379
F-0.6982080843260375
F0.9834385318316554
F2.7477734522439787
F-0.14505180934651435
F2.85360599923625
tp966
a(tag20
(g52
g22
Ntp967
Rp968
(lp969
I0
aI173460213
ababag20
(g47
g22
Ntp970
Rp971
(lp972
(F1.178415705016455
F-1.0628129302393063
F1.7035142955909577
F2.690032367867823
F-2.74284774843727
F1.7445379253854314
tp973
a(F0.1598906583272635
F-0.24467227223051427
F0.36905023208208054
F0.956552699554058
F-0.08552952692247162
F1.008213501721699
tp974
a(F0.34517558736639464
F-0.7142445091278269
F0.6672114454799705
F2.8950250546063017
F0.23894148221342978
F2.748717661111589
tp975
a(tag20
(g52
g22
Ntp976
Rp977
(lp978
I0
aI275774161
ababag20
(g47
g22
Ntp979
Rp980
(lp981
(F1.1930344328430518
F-1.0858999748588465
F1.7367574395825998
F2.780687332516158
F-2.7490356931253204
F1.8389228345969597
tp982
a(F0.18762565435025502
F-0.3046394534171011
F0.4130303680674082
F1.204433838407137
F-0.052920743783762235
F1.2336518855822964
tp983
a(F0.30111646916799917
F-0.6892168767715015
F0.33490546213644706
F2.917222419830641
F0.5525654544487599
F2.515341048893298
tp984
a(tag20
(g52
g22
Ntp985
Rp986
(lp987
I0
aI358886214
ababag20
(g47
g22
Ntp988
Rp989
(lp990
(F1.20753970777396
F-1.1100194734920532
F1.7677588228791494
F2.876592325995434
F-2.751319497391928
F1.9358142699818361
tp991
a(F0.20921463798369272
F-0.3528250322482954
F0.4258153312066393
F1.4158420619728207
F-0.0026335338348022885
F1.4073687573918174
tp992
a(F0.28480805928506503
F-0.6163764901264777
F-0.007675287079839077
F2.824357464054067
F0.8310028189557493
F2.187675542133898
tp993
a(tag20
(g52
g22
Ntp994
Rp995
(lp996
I0
aI431645594
ababag20
(g47
g22
Ntp997
Rp998
(lp999
(F1.221921923576313
F-1.134583126818418
F1.7956967196557099
F2.9759603298985464
F-2.7496045944181726
F2.033179633299646
tp1000
a(F0.228690356003605
F-0.3903496971530554
F0.41563733685660387
F1.5986934825065977
F0.060576778708788505
F1.5423069526400415
tp1001
a(F0.30675927953394144
F-0.5164328960355585
F-0.3160638589393563
F2.714144029739224
F1.0986335582433941
F1.8888684467350512
tp1002
a(tag20
(g52
g22
Ntp1003
Rp1004
(lp1005
I0
aI497296900
ababag20
(g47
g22
Ntp1006
Rp1007
(lp1008
(F1.236172173404421
F-1.1588933115910633
F1.8199578015778464
F3.0766471767677523
F-2.743921967617669
F2.128947059627477
tp1009
a(F0.24830998169164573
F-0.4170274857688706
F0.38842837113496465
F1.7550151221391899
F0.13447050442004066
F1.6456414503896357
tp1010
a(F0.34954983584142924
F-0.3664126962442586
F-0.6046596677847321
F2.4890555414091264
F1.3787002967238726
F1.54151512437883
tp1011
a(tag20
(g52
g22
Ntp1012
Rp1013
(lp1014
I0
aI557093773
ababag20
(g47
g22
Ntp1015
Rp1016
(lp1017
(F1.2502822755254848
F-1.182245938795895
F1.8402308374222454
F3.176404012493953
F-2.7344222160086495
F2.2212487727062182
tp1018
a(F0.25998782670635134
F-0.41790609376264964
F0.33824726882427664
F1.819633577591202
F0.20941256716216328
F1.6634523073220358
tp1019
a(F0.06218715340992449
F0.3557087507204806
F-1.2181170088907245
F-0.2438148492602031
F1.3151375239022072
F-0.973650063615044
tp1020
a(tag20
(g52
g22
Ntp1021
Rp1022
(lp1023
I0
aI611718666
ababag20
(g47
g22
Ntp1024
Rp1025
(lp1026
(F1.2642447961705023
F-1.2040329852015383
F1.8565249789238938
F3.2731483608919385
F-2.7213534930484418
F2.3086079555636756
tp1027
a(F0.26377098206392313
F-0.39457955373250897
F0.27391081341751766
F1.7925222108204406
F0.2796110320784597
F1.602454227743198
tp1028
a(F0.07994057808566368
F0.5213443464547971
F-1.1948100314098427
F-0.7798763535534471
F1.31799992851141
F-1.3187020570212156
tp1029
a(tag20
(g52
g22
Ntp1030
Rp1031
(lp1032
I0
aI665078623
ababag20
(g47
g22
Ntp1033
Rp1034
(lp1035
(F1.2780530687024845
F-1.223812785457146
F1.8691171165460205
F3.3651770651790605
F-2.7050299784577807
F2.3900288078983105
tp1036
a(F0.26297068173538285
F-0.35735820534064155
F0.210235391611516
F1.7063055442379635
F0.34037743552614597
F1.4980637598680744
tp1037
a(F-0.11127320091389276
F0.9001647692852335
F-1.2344440890845239
F-2.5164046317599356
F0.9987744226956825
F-2.6692519552279816
tp1038
a(tag20
(g52
g22
Ntp1039
Rp1040
(lp1041
I0
aI717013765
ababag20
(g47
g22
Ntp1042
Rp1043
(lp1044
(F1.2917012066986746
F-1.2413336258767125
F1.8784590923962798
F3.4512758992578125
F-2.68579890969964
F2.4649898289320626
tp1045
a(F0.25620775070294155
F-0.30901472358500714
F0.1509722437350821
F1.5638072391394822
F0.38710548839878645
F1.3541020128461254
tp1046
a(F-0.14572106341261357
F0.938386158235385
F-1.0212403675639354
F-2.9010161319589973
F0.780155900890278
F-2.805597118418436
tp1047
a(tag20
(g52
g22
Ntp1048
Rp1049
(lp1050
I0
aI769493273
ababag20
(g47
g22
Ntp1051
Rp1052
(lp1053
(F1.3051841095150711
F-1.2565166220130297
F1.885080748416712
F3.5307253537251535
F-2.664012400922223
F2.5333698261471174
tp1054
a(F0.25731919955953425
F-0.26914402801371
F0.10562777061688372
F1.4577465393347058
F0.44034771805517386
F1.2503956196144461
tp1055
a(F0.19079932051821985
F0.5768355527555643
F-0.7027629655463964
F-1.1229630908749186
F1.2510423593668398
F-1.1295714040244254
tp1056
a(tag20
(g52
g22
Ntp1057
Rp1058
(lp1059
I0
aI822922763
ababag20
(g47
g22
Ntp1060
Rp1061
(lp1062
(F1.3184974608609974
F-1.2694152917017463
F1.8895131155911051
F3.603233478777782
F-2.6400070780695457
F2.595344425799485
tp1063
a(F0.260421408277391
F-0.23286115376704308
F0.0704897283270603
F1.359651735657786
F0.4914280240102661
F1.1608241141346884
tp1064
a(F-0.07353905379713274
F0.8370924485384542
F-0.6628519663190764
F-2.7109551766090854
F0.7282682182785001
F-2.368549836917494
tp1065
a(tag20
(g52
g22
Ntp1066
Rp1067
(lp1068
I0
aI873681103
ababag20
(g47
g22
Ntp1069
Rp1070
(lp1071
(F1.3316377218995912
F-1.2801694134341222
F1.8922400548817169
F3.6688350367813705
F-2.6140917266657295
F2.6512830588249665
tp1072
a(F0.255522926336567
F-0.19144852918436805
F0.04080501024872721
F1.2194820000614728
F0.5232424957716278
F1.0409325968633394
tp1073
a(F-0.11866538103666398
F0.7890759084124331
F-0.5031525612540209
F-2.7924500126718668
F0.5214949181258903
F-2.3389693730028367
tp1074
a(tag20
(g52
g22
Ntp1075
Rp1076
(lp1077
I0
aI924503242
ababag20
(g47
g22
Ntp1078
Rp1079
(lp1080
(F1.344602120175956
F-1.2889646363221121
F1.8936753490881535
F3.7277880721206187
F-2.586541504540211
F2.7016630628691862
tp1081
a(F0.2549317358096387
F-0.1564774214765232
F0.018830554519362244
F1.1044348221765925
F0.5595863315445151
F0.946936832656111
tp1082
a(F0.09659832145633254
F0.5866374048960024
F-0.3612083014339973
F-1.7311212963278522
F0.9115913670056479
F-1.3562264599573786
tp1083
a(tag20
(g52
g22
Ntp1084
Rp1085
(lp1086
I0
aI975849025
ababag20
(g47
g22
Ntp1087
Rp1088
(lp1089
(F1.3573886350746367
F-1.296002513217798
F1.8941576345188271
F3.7804854941440067
F-2.5575967550735914
F2.747006213802293
tp1090
a(F0.25223574699975604
F-0.12451893798109581
F0.0028736541745750656
F0.9899920625261369
F0.5865951814591067
F0.8564691459357204
tp1091
a(F-0.20399703386742626
F0.6808949639604424
F-0.27145165675264327
F-2.8090807676058756
F0.15828928214448365
F-2.232869889128765
tp1092
a(tag20
(g52
g22
Ntp1093
Rp1094
(lp1095
I1
aI25530187
ababag20
(g47
g22
Ntp1096
Rp1097
(lp1098
(F1.3699959801187183
F-1.301481019483618
F1.8939555749837909
F3.827387867622997
F-2.5274646285222926
F2.787836221339764
tp1099
a(F0.2618559407352331
F-0.09934464523862141
F-0.009524935655456642
F0.9224751979909296
F0.641872521367048
F0.8098579545586835
tp1100
a(F0.6151566009407118
F0.3348587881734059
F-0.23198251545841506
F0.13354659439230152
F2.1383119529036363
F0.4003220307775655
tp1101
a(tag20
(g52
g22
Ntp1102
Rp1103
(lp1104
I1
aI76551413
ababag20
(g47
g22
Ntp1105
Rp1106
(lp1107
(F1.3824235823204698
F-1.3055834926202619
F1.893277631770862
F3.868976701689662
F-2.496322159991516
F2.824652898363349
tp1108
a(F0.2937718141333354
F-0.08233920625318411
F-0.020170551004384467
F0.9292860673929799
F0.7527930366301906
F0.8319743481739568
tp1109
a(F0.8140467823427598
F0.4256724066472194
F-0.2410357912927044
F0.17113305417144856
F2.8286909840096537
F0.593637518511923
tp1110
a(tag20
(g52
g22
Ntp1111
Rp1112
(lp1113
I1
aI121479354
ababag20
(g47
g22
Ntp1114
Rp1115
(lp1116
(F1.3946715588349263
F-1.3084734726808724
F1.8922829433881072
F3.9057245024310823
F-2.464319907522188
F2.857918303173205
tp1117
a(F0.31869791458047614
F-0.06129534216659189
F-0.028739833730476262
F0.9040093421851633
F0.8489338392907615
F0.8297792344577086
tp1118
a(F0.40681621255313505
F0.632305311700625
F-0.18272806755101137
F-1.5130435214849456
F1.9126444133525544
F-0.7704964930275354
tp1119
a(tag20
(g52
g22
Ntp1120
Rp1121
(lp1122
I1
aI160870560
ababag20
(g47
g22
Ntp1123
Rp1124
(lp1125
(F1.4067406912348508
F-1.3102932678229926
F1.8910914934560694
F3.938077223890094
F-2.4315856164225638
F2.888050843687533
tp1126
a(F0.3264164322686286
F-0.036569803888129124
F-0.033935300338485096
F0.8268439882836249
F0.9004794784740069
F0.7831688183710703
tp1127
a(F-0.002596542732168095
F0.6895794018678281
F-0.09302644805015073
F-2.630924134763009
F0.8191760220629523
F-1.73837005220114
tp1128
a(tag20
(g52
g22
Ntp1129
Rp1130
(lp1131
I1
aI197839811
ababag20
(g47
g22
Ntp1132
Rp1133
(lp1134
(F1.41863239776422
F-1.3111646462338136
F1.889792809929131
F3.9664452570337407
F-2.398227627601694
F2.91542432537766
tp1135
a(F0.3237641830008402
F-0.012313150417290525
F-0.036183789785899464
F0.7285611478453631
F0.9222374977656673
F0.7175286233982983
tp1136
a(F-0.14287889735984757
F0.6364381041425079
F-0.029694997580756378
F-2.742910503589274
F0.3689081296930295
F-1.8507802207060078
tp1137
a(tag20
(g52
g22
Ntp1138
Rp1139
(lp1140
I1
aI234276220
ababag20
(g47
g22
Ntp1141
Rp1142
(lp1143
(F1.4303487039348097
F-1.3111905937000854
F1.888453031572256
F3.9911999618945475
F-2.3643379062405776
F2.9403698451282096
tp1144
a(F0.3152479656105478
F0.009467062715861268
F-0.03621726255274235
F0.6269988478100745
F0.9246366232189249
F0.6475104433801024
tp1145
a(F-0.32042042729676057
F0.5516832463850447
F0.027526375855631596
F-2.7946801216211967
F-0.23446916719304545
F-1.9664165474700877
tp1146
a(tag20
(g52
g22
Ntp1147
Rp1148
(lp1149
I1
aI270757480
ababag20
(g47
g22
Ntp1150
Rp1151
(lp1152
(F1.441892211815622
F-1.3104574868342673
F1.8871204630204184
F4.012673595838844
F-2.3299946591482033
F2.963179155668979
tp1153
a(F0.29626790779406886
F0.027503256710423304
F-0.03392231431332127
F0.5178817701369564
F0.8925305505466332
F0.5661787769057343
tp1154
a(F-0.6746828386412159
F0.4056777025481365
F0.09226233141112143
F-2.971459664966746
F-1.4342061522356717
F-2.3259012628012714
tp1155
a(tag20
(g52
g22
Ntp1156
Rp1157
(lp1158
I1
aI308074491
ababag20
(g47
g22
Ntp1159
Rp1160
(lp1161
(F1.453266068338382
F-1.3090373130633661
F1.8858298485426503
F4.0311611809893595
F-2.295264557890061
F2.9841086430440047
tp1162
a(F0.2596034799956839
F0.03923868303942432
F-0.028957166709673188
F0.39611726653229745
F0.8015093105773836
F0.4635007000673783
tp1163
a(F-1.0768100441122133
F0.176953150895283
F0.1450312290677811
F-2.9301544539651063
F-2.886023114759377
F-2.629777403237069
tp1164
a(tag20
(g52
g22
Ntp1165
Rp1166
(lp1167
I1
aI348236489
ababag20
(g47
g22
Ntp1168
Rp1169
(lp1170
(F1.4644739329110257
F-1.306989747139707
F1.8846056125789472
F4.046923364403363
F-2.2602046073020188
F3.0033834094951266
tp1171
a(F0.23705289361189216
F0.0498572766607005
F-0.02519021584276185
F0.3089332319619861
F0.7500231229022163
F0.39496962468443886
tp1172
a(F0.0445410566085992
F0.28721317859543416
F0.025091121098885727
F-0.9789286461548027
F0.5008339061053715
F-0.46463085789722913
tp1173
a(tag20
(g52
g22
Ntp1174
Rp1175
(lp1176
I1
aI395725933
ababag20
(g47
g22
Ntp1177
Rp1178
(lp1179
(F1.4755199445970377
F-1.3043640008744775
F1.883464292343504
F4.0601896805901925
F-2.22486370661062
F3.021201180461938
tp1180
a(F0.21235416915787275
F0.05540767495118436
F-0.021280406295912137
F0.2369986386452793
F0.6857698528654247
F0.3337172643361609
tp1181
a(F-0.983135779487403
F-0.045469257039211855
F0.12682128751961638
F-1.86966824534895
F-2.902653825094746
F-1.92269735254981
tp1182
a(tag20
(g52
g22
Ntp1183
Rp1184
(lp1185
I1
aI442118586
ababag20
(g47
g22
Ntp1186
Rp1187
(lp1188
(F1.4864086890878254
F-1.3012004231225294
F1.8824163509376697
F4.071161864272333
F-2.189283950123909
F3.0377358955795124
tp1189
a(F0.1499192563830548
F0.046453126411314605
F-0.013982997068813735
F0.14071387391611848
F0.4935632705198192
F0.2229168934651784
tp1190
a(F-0.9581615286862868
F-0.20275044051774152
F0.10384434579871084
F-1.2358984686669587
F-3.034465113982799
F-1.578703515009611
tp1191
a(tag20
(g52
g22
Ntp1192
Rp1193
(lp1194
I1
aI500468846
ababag20
(g47
g22
Ntp1195
Rp1196
(lp1197
(F1.4971451656615522
F-1.2975318586571014
F1.8814675214975756
F4.080017015427499
F-2.153501710419368
F3.0531409282428315
tp1198
a(F0.14588447617736444
F0.05430441017215509
F-0.012149547572265528
F0.10480608131306995
F0.49176764054857197
F0.20271660935035568
tp1199
a(F0.8474742447390303
F0.405238426305959
F-0.05561553748513151
F0.296323908089257
F2.9689321677233482
F1.0446243425626522
tp1200
a(tag20
(g52
g22
Ntp1201
Rp1202
(lp1203
I1
aI595290198
ababag20
(g47
g22
Ntp1204
Rp1205
(lp1206
(F1.5077347542954433
F-1.293384789272527
F1.88061979919117
F4.086910515845582
F-2.117548541529529
F3.0675519271256912
tp1207
a(F0.1992977043327646
F0.08344764887082133
F-0.01501922743523862
F0.11148239562458462
F0.6832015513743248
F0.26404039739612845
tp1208
a(F0.7774751574781125
F0.5067019261593713
F-0.02721631774109005
F-0.1776159136446105
F2.8852482166342917
F0.7892253599410222
tp1209
a(tag20
(g52
g22
Ntp1210
Rp1211
(lp1212
I1
aI654602173
ababag20
(g47
g22
Ntp1213
Rp1214
(lp1215
(F1.5181831830678596
F-1.2887802856596728
F1.8798721701751426
F4.09197865539308
F-2.081451933954971
F3.0810892992026284
tp1216
a(F0.23595389424997198
F0.11009367622677343
F-0.015822005155473058
F0.09442422066932857
F0.822316586774722
F0.29849148798141323
tp1217
a(F0.7191600855334055
F0.5933670863474108
F-0.0034444942518092304
F-0.5570976466004907
F2.8082524102392314
F0.6052264650949845
tp1218
a(tag20
(g52
g22
Ntp1219
Rp1220
(lp1221
I1
aI702083176
ababag20
(g47
g22
Ntp1222
Rp1223
(lp1224
(F1.5284964959642644
F-1.2837347987662626
F1.8792211446310372
F4.095340961070545
F-2.0452359481007694
F3.0938603665994053
tp1225
a(F0.2653618275732502
F0.1365496045744885
F-0.015615992956050793
F0.06516756177094835
F0.9393746466254442
F0.3216076873309528
tp1226
a(F0.6975038461062392
F0.6886740206758104
F0.014568775677885224
F-0.8746839938412051
F2.8384584763483223
F0.5026976915331096
tp1227
a(tag20
(g52
g22
Ntp1228
Rp1229
(lp1230
I1
aI743032931
ababag20
(g47
g22
Ntp1231
Rp1232
(lp1233
(F1.5386810211761108
F-1.2782608170961445
F1.8786611441153551
F4.097102241079294
F-2.0089217481003723
F3.1059612342245035
tp1234
a(F0.29010990898269473
F0.16319240053405648
F-0.014800046678675079
F0.027888873201586867
F1.042138427635377
F0.33813153125751866
tp1235
a(F0.6430482009203039
F0.7612391687232932
F0.030540570372610175
F-1.1636524246303572
F2.7342965870200246
F0.3883654864944121
tp1236
a(tag20
(g52
g22
Ntp1237
Rp1238
(lp1239
I1
aI779553519
ababag20
(g47
g22
Ntp1240
Rp1241
(lp1242
(F1.5487433399621606
F-1.2723674131638407
F1.8781847806021088
F4.097354365895528
F-1.972528054074392
F3.117478405387625
tp1243
a(F0.3102243454390442
F0.18940914153852345
F-0.013576863022610262
F-0.015096722532589374
F1.1297315015233549
F0.3490899762058396
tp1244
a(F0.5498727007263459
F0.7999598766399264
F0.042711911698824476
F-1.4031268392975866
F2.4660283875914737
F0.2583931422333651
tp1245
a(tag20
(g52
g22
Ntp1246
Rp1247
(lp1248
I1
aI812944431
ababag20
(g47
g22
Ntp1249
Rp1250
(lp1251
(F1.5586902561230704
F-1.266060698887772
F1.8777830549533316
F4.096177812286859
F-1.9360715276048102
F3.128490180464595
tp1252
a(F0.326708746560639
F0.2152755206711053
F-0.012178959724838276
F-0.061939265759920356
F1.2049873763780643
F0.35634808790848865
tp1253
a(F0.5022459905384318
F0.8550752007504009
F0.04676560327028753
F-1.5970262408849254
F2.340082074819515
F0.20379196464381885
tp1254
a(tag20
(g52
g22
Ntp1255
Rp1256
(lp1257
I1
aI844116247
ababag20
(g47
g22
Ntp1258
Rp1259
(lp1260
(F1.5685287661240428
F-1.2593442064608276
F1.8774454953467048
F4.093642996800472
F-1.8995671025263152
F3.1390678704484967
tp1261
a(F0.34436458490565625
F0.24378079870749655
F-0.010926311703987017
F-0.1127968857970366
F1.2851796544604
F0.3655081377412157
tp1262
a(F0.7062364381870488
F1.0931426644207205
F0.038250589026863575
F-1.874239469699325
F3.144981329610856
F0.4268717522577014
tp1263
a(tag20
(g52
g22
Ntp1264
Rp1265
(lp1266
I1
aI873544860
ababag20
(g47
g22
Ntp1267
Rp1268
(lp1269
(F1.5782660298872129
F-1.2522192083423096
F1.8771602507956893
F4.089811424074779
F-1.8630282709629622
F3.149276853684311
tp1270
a(F0.3407948699435403
F0.2574763568881988
F-0.009365923581021864
F-0.15581779390453343
F1.2851796544603995
F0.3537449810138161
tp1271
a(F-0.9564036763453716
F-0.13030960563853136
F0.07137968367394376
F-1.1489936549639925
F-3.1424653438778867
F-1.252759384965418
tp1272
a(tag20
(g52
g22
Ntp1273
Rp1274
(lp1275
I1
aI901019330
ababag20
(g47
g22
Ntp1276
Rp1277
(lp1278
(F1.587909342263248
F-1.2446849875251769
F1.8769141509034457
F4.084736673103047
F-1.8264673327765664
F3.1591775005554315
tp1279
a(F0.31626947369023206
F0.254755772776275
F-0.007712133177086923
F-0.1862814237053782
F1.2044951705749252
F0.3221002963394423
tp1280
a(F-0.7180369041349884
F-0.05695794679855366
F0.04196397860400412
F-0.9284206963231079
F-2.3659182455239414
F-0.9089195964728372
tp1281
a(tag20
(g52
g22
Ntp1282
Rp1283
(lp1284
I1
aI930493502
ababag20
(g47
g22
Ntp1285
Rp1286
(lp1287
(F1.5974661051822074
F-1.2367390671310066
F1.87669274002165
F4.078465241931885
F-1.7898956151815695
F3.168825987640375
tp1288
a(F0.2925105297424082
F0.25030992246496453
F-0.006671674681728745
F-0.2097827665899366
F1.1238436119513113
F0.29355304755113854
tp1289
a(F-0.7885062021843635
F-0.21970785278800617
F0.02472359455459739
F-0.5765671046813721
F-2.743313555186991
F-0.9043753304137125
tp1290
a(tag20
(g52
g22
Ntp1291
Rp1292
(lp1293
I1
aI961790154
ababag20
(g47
g22
Ntp1294
Rp1295
(lp1296
(F1.6069438004775973
F-1.228377406615076
F1.8764802916437244
F4.071037268965486
F-1.7533236681599045
F3.1782750200462497
tp1297
a(F0.2667513964448518
F0.24187505247060415
F-0.006109465485437004
F-0.22495969278979006
F1.0329172317820428
F0.2648887029381187
tp1298
a(F-0.7278362664899095
F-0.27369680046357653
F0.00898142277550913
F-0.3259310149319769
F-2.605929966479976
F-0.7851724556212317
tp1299
a(tag20
(g52
g22
Ntp1300
Rp1301
(lp1302
I1
aI995680156
ababag20
(g47
g22
Ntp1303
Rp1304
(lp1305
(F1.6163499633698377
F-1.2195945704208115
F1.8762598072848071
F4.062487146077314
F-1.7167614403994518
F3.1875744780276762
tp1306
a(F0.2397439795324611
F0.22974513812103106
F-0.005955668512325515
F-0.23182715992682687
F0.9346676044176863
F0.236557040127188
tp1307
a(F-0.7187768568282461
F-0.3709308932419037
F-0.0002804137801319236
F-0.05540147553617848
F-2.6526620329155257
F-0.7344447526447526
tp1308
a(tag20
(g52
g22
Ntp1309
Rp1310
(lp1311
I2
aI32735302
ababag20
(g47
g22
Ntp1312
Rp1313
(lp1314
(F1.6256921565934355
F-1.2103838736969235
F1.8760130026914887
F4.0528440367437675
F-1.680218439781532
F3.1967720019694004
tp1315
a(F0.20857930560619992
F0.21070958163182874
F-0.005999152131811408
F-0.22691786807112543
F0.8178624396405955
F0.20534452141713552
tp1316
a(F-0.759445941526304
F-0.5233151351206184
F-0.0016902490005049947
F0.2668172629837989
F-2.882461591257936
F-0.7478996407138679
tp1317
a(tag20
(g52
g22
Ntp1318
Rp1319
(lp1320
I2
aI74137351
ababag20
(g47
g22
Ntp1321
Rp1322
(lp1323
(F1.6349779451486417
F-1.2007375086843375
F1.8757202832217947
F4.04213231022551
F-1.6437038818813234
F3.205913528006169
tp1324
a(F0.17046785911489182
F0.18109303460132864
F-0.005926922334669009
F-0.2055831336025316
F0.6715824489152783
F0.16811742364536397
tp1325
a(F-0.7631672749554159
F-0.647539906266987
F0.003996715407738665
F0.5562372792531297
F-2.955650757826323
F-0.7405070111057466
tp1326
a(tag20
(g52
g22
Ntp1327
Rp1328
(lp1329
I2
aI122623833
ababag20
(g47
g22
Ntp1330
Rp1331
(lp1332
(F1.6442148716580893
F-1.1906466545372971
F1.875360709447501
F4.0303719008133525
F-1.607226829521363
F3.2150437850998292
tp1333
a(F0.11440276084896539
F0.12713463937019395
F-0.0048453485936986096
F-0.15034269630187477
F0.45228600331226065
F0.11339934456173298
tp1334
a(F-0.7884920290908927
F-0.8128500144206495
F0.021870630827060752
F0.8984042826357806
F-3.1024398397312964
F-0.7722327016131159
tp1335
a(tag20
(g52
g22
Ntp1336
Rp1337
(lp1338
I2
aI184441224
ababag20
(g47
g22
Ntp1339
Rp1340
(lp1341
(F1.6534104323091456
F-1.180101572619771
F1.8749119532896679
F4.017578599672938
F-1.5707963260972209
F3.2242067632412
tp1342
a(F0.03969137011362446
F-0.019005617613136946
F-0.04021137544661124
F0.04757587072344514
F0.15724724451139876
F0.03955073220347412
tp1343
a(F-0.6886299126747424
F-1.9091237427859262
F-0.6304396267119342
F2.7415323432230103
F-2.7281789227520528
F-0.6861898992843377
tp1344
a(tag20
(g52
g22
Ntp1345
Rp1346
(lp1347
I2
aI300279513
ababag20
(g47
g22
Ntp1348
Rp1349
(lp1350
(F1.6534104324396168
F-1.1949047794838692
F1.8661307081235254
F4.041163051703179
F-1.5707963260972209
F3.2242067633716713
tp1351
a(F1.8308132953457343e-09
F-0.2031448398165147
F-0.12848540786403717
F0.33163024768055094
F0.0
F1.8308154433351278e-09
tp1352
a(F1.6669527959394675e-08
F-1.7812588832694245
F-1.2484694468413489
F3.029728330110796
F0.0
F1.6669579593440803e-08
tp1353
a(tag20
(g52
g22
Ntp1354
Rp1355
(lp1356
I2
aI414993910
ababag20
(g47
g22
Ntp1357
Rp1358
(lp1359
(F1.6534104325700878
F-1.2092346694075535
F1.8568053027941311
F4.064818346956257
F-1.5707963260972209
F3.2242067635021425
tp1360
a(F2.8863886310841504e-09
F-0.3110297419783849
F-0.21303176521542314
F0.524061507193819
F0.0
F2.886393543332512e-09
tp1361
a(F1.5769986420949673e-08
F-1.4712701434812054
F-1.4201272834895624
F2.8913974269712504
F0.0
F1.5770013259004268e-08
tp1362
a(tag20
(g52
g22
Ntp1363
Rp1364
(lp1365
I2
aI466680525
ababag20
(g47
g22
Ntp1366
Rp1367
(lp1368
(F1.6534104327005592
F-1.2230835978374524
F1.8469394824348784
F4.08853309574541
F-1.5707963260972209
F3.224206763632614
tp1369
a(F3.5402897332396783e-09
F-0.36862205957035155
F-0.2755884593770722
F0.6442105189474414
F0.0
F3.5402957583426067e-09
tp1370
a(F1.5727259547656255e-08
F-1.283279494280397
F-1.6141619144116848
F2.897441408691836
F0.0
F1.5727286313912155e-08
tp1371
a(tag20
(g52
g22
Ntp1372
Rp1373
(lp1374
I2
aI506844021
ababag20
(g47
g22
Ntp1375
Rp1376
(lp1377
(F1.6534104328310302
F-1.236444714008776
F1.836536884644448
F4.112296809707164
F-1.5707963260972209
F3.2242067637630853
tp1378
a(F4.070471901182315e-09
F-0.4086880363274865
F-0.33334877989494927
F0.7420368162224422
F0.0
F4.070475162026276e-09
tp1379
a(F1.482429870275508e-08
F-1.0109471037645497
F-1.7295031664878726
F2.740450270252015
F0.0
F1.4824095935297398e-08
tp1380
a(tag20
(g52
g22
Ntp1381
Rp1382
(lp1383
I2
aI540891128
ababag20
(g47
g22
Ntp1384
Rp1385
(lp1386
(F1.6534104329615014
F-1.2493119295093982
F1.8256010169174322
F4.136099892934802
F-1.5707963260972209
F3.2242067638935565
tp1387
a(F4.51017388757826e-09
F-0.43578402975699315
F-0.38760327320059396
F0.8233873029575911
F0.0
F4.51017388757826e-09
tp1388
a(F1.3889643381385435e-08
F-0.7478283294270894
F-1.8244125809467504
F2.5722409103741177
F0.0
F1.3889643381385435e-08
tp1389
a(tag20
(g52
g22
Ntp1390
Rp1391
(lp1392
I2
aI571170792
ababag20
(g47
g22
Ntp1393
Rp1394
(lp1395
(F1.6534104330919726
F-1.2616798880233473
F1.81413521122724
F4.159933657138944
F-1.5707963260972209
F3.2242067640240277
tp1396
a(F4.934663004881376e-09
F-0.4578186457048474
F-0.4440714902215037
F0.9018901359263727
F0.0
F4.934663004881376e-09
tp1397
a(F1.68481554583083e-08
F-0.8452020611328036
F-2.266712356590884
F3.1119144177247122
F0.0
F1.68481554583083e-08
tp1398
a(tag20
(g52
g22
Ntp1399
Rp1400
(lp1401
I2
aI598863003
ababag20
(g47
g22
Ntp1402
Rp1403
(lp1404
(F1.6534104332224437
F-1.2735439295570607
F1.8021425781329508
F4.183790331766947
F-1.5707963260972209
F3.224206764154499
tp1405
a(F5.335700335657914e-09
F-0.474455284149535
F-0.5015176503872706
F0.9759729345368184
F0.0
F5.335700335657914e-09
tp1406
a(F1.4530441981583322e-08
F-0.44447249349486434
F-2.2401504299725405
F2.6846229234655907
F0.0
F1.4530441981583322e-08
tp1407
a(tag20
(g52
g22
Ntp1408
Rp1409
(lp1410
I2
aI624158657
ababag20
(g47
g22
Ntp1411
Rp1412
(lp1413
(F1.653410433352915
F-1.2849000497089156
F1.7896259604043243
F4.207663069647428
F-1.5707963260972209
F3.22420676428497
tp1414
a(F5.6512335400107085e-09
F-0.48053602128458595
F-0.5537135399970199
F1.0342495612815963
F0.0
F5.6512335400107085e-09
tp1415
a(F1.1920117228185507e-08
F-0.055449048825653074
F-2.145091581139863
F2.2005406299654875
F0.0
F1.1920117228185507e-08
tp1416
a(tag20
(g52
g22
Ntp1417
Rp1418
(lp1419
I2
aI647822390
ababag20
(g47
g22
Ntp1420
Rp1421
(lp1422
(F1.6534104334833861
F-1.295744854532068
F1.7765878861042779
F4.231545948770627
F-1.5707963260972209
F3.2242067644154413
tp1423
a(F5.938830772791557e-09
F-0.48164045490789004
F-0.6055883439806634
F1.0872287988885536
F0.0
F5.938830772791557e-09
tp1424
a(F1.3639011020600128e-08
F-0.04221151748952296
F-2.465340626049127
F2.5075521435395696
F0.0
F1.3639011020600128e-08
tp1425
a(tag20
(g52
g22
Ntp1426
Rp1427
(lp1428
I2
aI670360492
ababag20
(g47
g22
Ntp1429
Rp1430
(lp1431
(F1.6534104336138573
F-1.306075511516003
F1.763030521010489
F4.255433970848351
F-1.5707963260972209
F3.2242067645459125
tp1432
a(F6.035740019160471e-09
F-0.46606652796180265
F-0.6390448540979745
F1.1051113820597722
F0.0
F6.035745110078489e-09
tp1433
a(F-4.903779838651335e-09
F1.4837483224961943
F-0.5882572764961795
F-0.8954910460014321
F0.0
F-4.903308851694249e-09
tp1434
a(tag20
(g52
g22
Ntp1435
Rp1436
(lp1437
I2
aI691788748
ababag20
(g47
g22
Ntp1438
Rp1439
(lp1440
(F1.6534104337443283
F-1.3158896971748615
F1.7489556201971164
F4.279323057320582
F-1.5707963260972209
F3.2242067646763837
tp1441
a(F5.848334234785168e-09
F-0.4285682128483359
F-0.6422082858790645
F1.0707764987273853
F0.0
F5.848339325703185e-09
tp1442
a(F-1.2042586337121286e-08
F1.9228997506667218
F0.2862848354719733
F-2.2091845861382176
F0.0
F-1.2043042494390674e-08
tp1443
a(tag20
(g52
g22
Ntp1444
Rp1445
(lp1446
I2
aI713596662
ababag20
(g47
g22
Ntp1447
Rp1448
(lp1449
(F1.6534104338747995
F-1.3251855416818905
F1.7343644785334187
F4.303210043491308
F-1.5707963260972209
F3.224206764806855
tp1450
a(F5.562077414508469e-09
F-0.38551077246095145
F-0.6327176773247276
F1.018228449785688
F0.0
F5.562077414508469e-09
tp1451
a(F-1.2937819488865122e-08
F1.8400196758719387
F0.5363665866690893
F-2.3763862625394365
F0.0
F-1.2937819488865122e-08
tp1452
a(tag20
(g52
g22
Ntp1453
Rp1454
(lp1455
I2
aI736430527
ababag20
(g47
g22
Ntp1456
Rp1457
(lp1458
(F1.6534104340052707
F-1.3339615709306734
F1.7192578797875677
F4.327092671485943
F-1.5707963260972209
F3.224206764937326
tp1459
a(F5.244068685262797e-09
F-0.3425999287548753
F-0.6172106437086136
F0.9598105724635114
F0.0
F5.244068685262797e-09
tp1460
a(F-1.3343031374262061e-08
F1.7116258683018717
F0.7397372547642475
F-2.451363123066536
F0.0
F-1.3343031374262061e-08
tp1461
a(tag20
(g52
g22
Ntp1462
Rp1463
(lp1464
I2
aI760546212
ababag20
(g47
g22
Ntp1465
Rp1466
(lp1467
(F1.6534104341357418
F-1.342216646336171
F1.7036360439501088
F4.3509695827289
F-1.5707963260972209
F3.2242067650677972
tp1468
a(F4.9008858499052675e-09
F-0.3006386569388154
F-0.5961371938043561
F0.8967758507431802
F0.0
F4.9008858499052675e-09
tp1469
a(F-1.32822161147661e-08
F1.5491354285127654
F0.8899781211551078
F-2.439113549668521
F0.0
F-1.32822161147661e-08
tp1470
a(tag20
(g52
g22
Ntp1471
Rp1472
(lp1473
I2
aI786240057
ababag20
(g47
g22
Ntp1474
Rp1475
(lp1476
(F1.653410434266213
F-1.3499499026129582
F1.6874985723107467
F4.374840310645049
F-1.5707963260972209
F3.2242067651982684
tp1477
a(F4.5133134811116e-09
F-0.2588967286262508
F-0.5667543399134294
F0.8256510685396912
F0.0
F4.5133134811116e-09
tp1478
a(F-1.4534618292494694e-08
F1.4562418449810417
F1.209542266040335
F-2.665784111020617
F0.0
F-1.4534618292494694e-08
tp1479
a(tag20
(g52
g22
Ntp1480
Rp1481
(lp1482
I2
aI813859697
ababag20
(g47
g22
Ntp1483
Rp1484
(lp1485
(F1.6534104343966842
F-1.3571606836848975
F1.6708443897325975
F4.398705274295138
F-1.5707963260972209
F3.2242067653287396
tp1486
a(F4.336650999811385e-09
F-0.23091533466303513
F-0.5622433086064224
F0.7931586432694647
F0.0
F4.336654718848485e-09
tp1487
a(F2.252069229786382e-09
F0.4577924191740778
F-0.8648015468136302
F0.40700912763857083
F0.0
F2.252316444444121e-09
tp1488
a(tag20
(g52
g22
Ntp1489
Rp1490
(lp1491
I2
aI844182290
ababag20
(g47
g22
Ntp1492
Rp1493
(lp1494
(F1.6534104345271552
F-1.3638484767900163
F1.6536716834671925
F4.422565773665662
F-1.5707963260972209
F3.224206765459211
tp1495
a(F4.105348568297401e-09
F-0.20273231941526482
F-0.5480186119277008
F0.7507509313429586
F0.0
F4.105352287334501e-09
tp1496
a(F-1.6618582185455148e-08
F1.3345963579818696
F1.7067514421922134
F-3.04134780017405
F0.0
F-1.6618815252257498e-08
tp1497
a(tag20
(g52
g22
Ntp1498
Rp1499
(lp1500
I2
aI874034722
ababag20
(g47
g22
Ntp1501
Rp1502
(lp1503
(F1.6534104346576264
F-1.370012844746156
F1.6359778377382101
F4.446423987350784
F-1.5707963260972209
F3.224206765589682
tp1504
a(F3.5531577190371948e-09
F-0.16131882754904867
F-0.4884276145959962
F0.6497464421450416
F0.0
F3.5531549397665096e-09
tp1505
a(F-1.5530369769257504e-08
F1.0885747469615907
F1.7508430534094974
F-2.839417800370911
F0.0
F-1.553052015870863e-08
tp1506
a(tag20
(g52
g22
Ntp1507
Rp1508
(lp1509
I2
aI908010121
ababag20
(g47
g22
Ntp1510
Rp1511
(lp1512
(F1.6534104347880978
F-1.375653356236189
F1.61775936318821
F4.470282973390817
F-1.5707963260972209
F3.224206765720153
tp1513
a(F2.9067247275869647e-09
F-0.1205443611743551
F-0.4110480557608821
F0.531592416935246
F0.0
F2.9067241159032944e-09
tp1514
a(F-1.57701197481499e-08
F0.9063511632146075
F1.975437700758905
F-2.8817888639731337
F0.0
F-1.576990269946998e-08
tp1515
a(tag20
(g52
g22
Ntp1516
Rp1517
(lp1518
I2
aI947956681
ababag20
(g47
g22
Ntp1519
Rp1520
(lp1521
(F1.6534104349185688
F-1.3807695138546787
F1.5990118201255754
F4.494146674071942
F-1.5707963260972209
F3.2242067658506244
tp1522
a(F1.8882640808780392e-09
F-0.07157135996054598
F-0.27384505584111885
F0.3454164158016756
F0.0
F1.888266248465054e-09
tp1523
a(F-1.6752315284201356e-08
F0.7197740607628491
F2.3431576188662366
F-3.062931679629253
F0.0
F-1.6752370382972847e-08
tp1524
a(tag20
(g52
g22
Ntp1525
Rp1526
(lp1527
I2
aI999175987
ababag20
(g47
g22
Ntp1528
Rp1529
(lp1530
(F1.65341043504904
F-1.3853606795283835
F1.579729734322078
F4.518019925549145
F-1.5707963260972209
F3.2242067659810956
tp1531
a(F-0.11459714768599806
F-0.06924725664977362
F-0.040318659087560584
F0.10956591581728786
F5.913407736924887e-12
F-0.11459714768599512
tp1532
a(F-2.5234363346523256
F-0.5723416180278968
F3.112459121669579
F-2.54011750188119
F1.302136055410001e-10
F-2.523436334652261
tp1533
a(tag20
(g52
g22
Ntp1534
Rp1535
(lp1536
I3
aI105316778
ababag20
(g47
g22
Ntp1537
Rp1538
(lp1539
(F1.636103575187481
F-1.3925523482468942
F1.5873585236814065
F4.517582804920401
F-1.5707963260963278
F3.206899906119537
tp1540
a(F-0.3138299623406122
F-0.12582260559626227
F0.1323098842217466
F-0.006487278406356479
F1.378920244062372e-11
F-0.3138299623406042
tp1541
a(F-2.8395169222401937
F-1.026073709625599
F1.0495083487599255
F-0.02343463714734405
F6.583785867882614e-11
F-2.839516922240122
tp1542
a(tag20
(g52
g22
Ntp1543
Rp1544
(lp1545
I3
aI180828517
ababag20
(g47
g22
Ntp1546
Rp1547
(lp1548
(F1.6186851665918307
F-1.3993894394921436
F1.5945097319850439
F4.517268687874181
F-1.5707963260956392
F3.189481497523887
tp1549
a(F-0.45442134707864934
F-0.17254212294437937
F0.1790188929736325
F-0.006476769711627555
F1.4858016627639277e-11
F-0.454421347078641
tp1550
a(F-2.8679304312529146
F-0.8270273287858999
F0.7906880391293971
F0.03633929166938434
F-4.5798796145756516e-11
F-2.8679304312530096
tp1551
a(tag20
(g52
g22
Ntp1552
Rp1553
(lp1554
I3
aI224542221
ababag20
(g47
g22
Ntp1555
Rp1556
(lp1557
(F1.6011641066748632
F-1.4058666909505033
F1.6011849885605076
F4.517070682769329
F-1.5707963260951598
F3.17196043760692
tp1558
a(F-0.5565445012466519
F-0.19890966527196546
F0.20330828668931744
F-0.004398621028028531
F1.1540841945473378e-11
F-0.5565445012466448
tp1559
a(F-2.90567376272906
F-0.643950456164733
F0.5577799681228555
F0.08617049008262598
F-1.5253601230592887e-10
F-2.9056737627290254
tp1560
a(tag20
(g52
g22
Ntp1561
Rp1562
(lp1563
I3
aI258871859
ababag20
(g47
g22
Ntp1564
Rp1565
(lp1566
(F1.5835497058465937
F-1.4119788930488737
F1.6073857280173205
F4.516982145423213
F-1.5707963260948934
F3.1543460367786507
tp1567
a(F-0.6405186728565377
F-0.21461021653356302
F0.2158463705742969
F-0.0012361535924519684
F5.507536064730502e-12
F-0.6405186728565297
tp1568
a(F-2.7338717962311043
F-0.39547326317665454
F0.26579450401327914
F0.1296787610820636
F-2.6102406153561633e-10
F-2.733871796231072
tp1569
a(tag20
(g52
g22
Ntp1570
Rp1571
(lp1572
I3
aI288097099
ababag20
(g47
g22
Ntp1573
Rp1574
(lp1575
(F1.5658516570111416
F-1.4177209347356756
F1.6131132325754136
F4.51699668256431
F-1.5707963260948439
F3.1366479879431988
tp1576
a(F-0.7100999597664328
F-0.2220599321163827
F0.21945425703448487
F0.0026056755789919165
F-2.6058284246196325e-12
F-0.7100999597664286
tp1577
a(F-2.5396351227670158
F-0.15831181938937663
F-0.0054180721159469555
F0.16372989328598087
F-3.599627452108293e-10
F-2.539635122767353
tp1578
a(tag20
(g52
g22
Ntp1579
Rp1580
(lp1581
I3
aI314187894
ababag20
(g47
g22
Ntp1582
Rp1583
(lp1584
(F1.548080010906362
F-1.4230878411238972
F1.6183686479238633
F4.517108173616523
F-1.5707963260950142
F3.118876341838419
tp1585
a(F-0.7726091491895879
F-0.22433547253799663
F0.2174450422816896
F0.0068904307971049605
F-1.2406209691237167e-11
F-0.772609149189583
tp1586
a(F-2.6635535407405166
F-0.025550653139550787
F-0.16824970965472494
F0.19380036465104544
F-4.590292843234735e-10
F-2.6635535407400837
tp1587
a(tag20
(g52
g22
Ntp1588
Rp1589
(lp1590
I3
aI338142951
ababag20
(g47
g22
Ntp1591
Rp1592
(lp1593
(F1.530245148275597
F-1.4280748101046778
F1.623152997334737
F4.517310793198912
F-1.5707963260954072
F3.1010414792076544
tp1594
a(F-0.8323185316537309
F-0.22312076486315396
F0.21161790470736136
F0.011502860738140962
F-2.3707490563722224e-11
F-0.8323185316537206
tp1595
a(F-2.697278611590467
F0.14052370206103174
F-0.361723468145571
F0.22119976795801138
F-5.589685917147086e-10
F-2.697278611590431
tp1596
a(tag20
(g52
g22
Ntp1597
Rp1598
(lp1599
I3
aI360343735
ababag20
(g47
g22
Ntp1600
Rp1601
(lp1602
(F1.5123577489940232
F-1.4326772476906982
F1.6274671941393306
F4.517599033992851
F-1.5707963260960243
F3.083154079926081
tp1603
a(F-0.8877867211639432
F-0.218239687661668
F0.20189944299857376
F0.016340245283828075
F-3.6347187011857047e-11
F-0.8877867211639321
tp1604
a(F-2.6245411883928345
F0.33399768637845234
F-0.5778144120793912
F0.24381672750986805
F-6.573017565199019e-10
F-2.624541188392807
tp1605
a(tag20
(g52
g22
Ntp1606
Rp1607
(lp1608
I3
aI381111806
ababag20
(g47
g22
Ntp1609
Rp1610
(lp1611
(F1.494428758318779
F-1.4368908018356834
F1.6313120526640836
F4.517967729625614
F-1.5707963260968671
F3.065225089250837
tp1612
a(F-0.9375989057300353
F-0.20964442724337776
F0.18835629739416065
F0.021288130504100375
F-5.009344314819173e-11
F-0.9375989057300297
tp1613
a(F-2.435389872839066
F0.5455609012723991
F-0.8052672821812257
F0.2597063825682844
F-7.426795025234353e-10
F-2.4353898728396577
tp1614
a(tag20
(g52
g22
Ntp1615
Rp1616
(lp1617
I3
aI400721758
ababag20
(g47
g22
Ntp1618
Rp1619
(lp1620
(F1.4764693504784079
F-1.4407113944687042
F1.6346882977148252
F4.51841207722043
F-1.5707963260979363
F3.0472656814104657
tp1621
a(F-0.9804261991153573
F-0.1974252252170468
F0.1711998763379795
F0.02622534956289656
F-6.463895315635029e-11
F-0.9804261991153634
tp1622
a(F-2.128042412816911
F0.7630849644148401
F-1.030396400528583
F0.26731143753800596
F-8.10962052919215e-10
F-2.128042412817583
tp1623
a(tag20
(g52
g22
Ntp1624
Rp1625
(lp1626
I3
aI419411609
ababag20
(g47
g22
Ntp1627
Rp1628
(lp1629
(F1.4584908898620397
F-1.444135251479684
F1.63759657269022
F4.518927659268544
F-1.5707963260992321
F3.0292872207940973
tp1630
a(F-1.0202354343084994
F-0.18267865272110823
F0.1514823203005339
F0.03119633313096197
F-8.005297205504309e-11
F-1.0202354343085056
tp1631
a(F-2.3026464763358687
F0.8791832697841724
F-1.1650694089639069
F0.28588614071118473
F-9.051058171388235e-10
F-2.3026464763351697
tp1632
a(tag20
(g52
g22
Ntp1633
Rp1634
(lp1635
I3
aI437391243
ababag20
(g47
g22
Ntp1636
Rp1637
(lp1638
(F1.440504890111035
F-1.4471589303958419
F1.640037446398136
F4.519510464489299
F-1.5707963261007538
F3.0113012210430927
tp1639
a(F-1.056300757088048
F-0.16557714702801402
F0.12944859725462346
F0.03612855050740507
F-9.606848786552771e-11
F-1.0563007570880414
tp1640
a(F-1.8514795612241521
F1.098160321467873
F-1.3814116427864265
F0.283251322507714
F-9.437753402065538e-10
F-1.8514795612233699
tp1641
a(tag20
(g52
g22
Ntp1642
Rp1643
(lp1644
I3
aI454676563
ababag20
(g47
g22
Ntp1645
Rp1646
(lp1647
(F1.4225229714544199
F-1.449779345497628
F1.6420114186419845
F4.520156907359718
F-1.5707963261025
F2.9933193023864777
tp1648
a(F-1.0883077263285732
F-0.14618483005622382
F0.10518355265550576
F0.041001278155171406
F-1.1257473528320893e-10
F-1.0883077263285597
tp1649
a(F-1.9664583030616296
F1.2157727796790534
F-1.5137200427666615
F0.297947264336273
F-1.0255064139867786e-09
F-1.9664583030616163
tp1650
a(tag20
(g52
g22
Ntp1651
Rp1652
(lp1653
I3
aI471449718
ababag20
(g47
g22
Ntp1654
Rp1655
(lp1656
(F1.404556816663266
F-1.451993790136909
F1.6435189246374464
F4.520863846015977
F-1.5707963261044688
F2.975353147595324
tp1657
a(F-1.121284538744056
F-0.12536246772565499
F0.07937365841123632
F0.04598881008964978
F-1.2995425207009885e-10
F-1.121284538744049
tp1658
a(F-2.0899381231210277
F1.346351390007761
F-1.6618913265067004
F0.31553993780579215
F-1.1126476336188977e-09
F-2.0899381231218737
tp1659
a(tag20
(g52
g22
Ntp1660
Rp1661
(lp1662
I3
aI487715305
ababag20
(g47
g22
Ntp1663
Rp1664
(lp1665
(F1.3866181260272772
F-1.4537999560395418
F1.6445603383134675
F4.521628598254973
F-1.5707963261066578
F2.9574144569593352
tp1666
a(F-1.1552605815525396
F-0.10301295720744022
F0.051886702129560286
F0.05112625587421122
F-1.4822886575941935e-10
F-1.1552605815525543
tp1667
a(F-2.2226233846812065
F1.4913756378978367
F-1.8279443364548686
F0.33656869992812677
F-1.2073088246789293e-09
F-2.2226233846830814
tp1668
a(tag20
(g52
g22
Ntp1669
Rp1670
(lp1671
I3
aI503478390
ababag20
(g47
g22
Ntp1672
Rp1673
(lp1674
(F1.368718571778327
F-1.4551959493985933
F1.6451359745446852
F4.522448955395126
F-1.5707963261090636
F2.9395149027103846
tp1675
a(F-1.1842857852753128
F-0.07870329422256618
F0.022542886489773116
F0.05616040854642154
F-1.6653388761102004e-10
F-1.184285785275335
tp1676
a(F-1.5613159406054515
F1.6881127606183908
F-2.0091949007597756
F0.3210821410239822
F-1.1844792518729212e-09
F-1.56131594060451
tp1677
a(tag20
(g52
g22
Ntp1678
Rp1679
(lp1680
I3
aI518744506
ababag20
(g47
g22
Ntp1681
Rp1682
(lp1683
(F1.3508697523999378
F-1.456180303592838
F1.6452460903554709
F4.5233231937908265
F-1.5707963261116822
F2.921666083331995
tp1684
a(F-1.2080899295593468
F-0.05258931427556011
F-0.008493541111986374
F0.061082856214504794
F-1.8470888044125645e-10
F-1.2080899295593466
tp1685
a(F-1.6298559755615598
F1.8132909708614526
F-2.152151316363905
F0.3388603464066526
F-1.252229156913772e-09
F-1.6298559755595126
tp1686
a(tag20
(g52
g22
Ntp1687
Rp1688
(lp1689
I3
aI533667402
ababag20
(g47
g22
Ntp1690
Rp1691
(lp1692
(F1.333083147268124
F-1.4567519883972457
F1.6448908851285986
F4.524250083834259
F-1.5707963261145095
F2.9038794782001816
tp1693
a(F-1.226210979485379
F-0.02511892169820945
F-0.04072043381263803
F0.06583935634686804
F-2.023956978141115e-10
F-1.2262109794853715
tp1694
a(F-0.842858493294013
F1.9476595744243488
F-2.2595360537381928
F0.31187647964454607
F-1.1676525334744947e-09
F-0.8428584932950713
tp1695
a(tag20
(g52
g22
Ntp1696
Rp1697
(lp1698
I3
aI548245267
ababag20
(g47
g22
Ntp1699
Rp1700
(lp1701
(F1.3153700720674493
F-1.4569104155870995
F1.6440704998439208
F4.525228896320842
F-1.5707963261175402
F2.886166402999507
tp1702
a(F-1.2201708288549398
F0.0032254238041363346
F-0.0725828258799048
F0.06935740290412967
F-2.1604480377909342e-10
F-1.2201708288549473
tp1703
a(F1.6765120624786995
F1.967415074807272
F-2.1415062083780003
F0.1740911321825112
F-7.177537445259734e-10
F1.6765120624776417
tp1704
a(tag20
(g52
g22
Ntp1705
Rp1706
(lp1707
I3
aI562619128
ababag20
(g47
g22
Ntp1708
Rp1709
(lp1710
(F1.297741635416457
F-1.456655440874518
F1.642785015364575
F4.526259406099547
F-1.5707963261207687
F2.8685379663485144
tp1711
a(F-1.1961286431280649
F0.031298390001644694
F-0.10316464633594397
F0.07186625714262088
F-2.261399476514288e-10
F-1.19612864312808
tp1712
a(F1.619354191331206
F1.8811622311160672
F-2.0509893212470764
F0.16982708877219854
F-6.663597403818771e-10
F1.6193541913312361
tp1713
a(tag20
(g52
g22
Ntp1714
Rp1715
(lp1716
I3
aI577211841
ababag20
(g47
g22
Ntp1717
Rp1718
(lp1719
(F1.2802086971190636
F-1.455987362154509
F1.6410344497800222
F4.527341892975911
F-1.5707963261241893
F2.8510050280511208
tp1720
a(F-1.1725601834409032
F0.058549115940055074
F-0.13291863075004048
F0.0743695155984512
F-2.3561852568059434e-10
F-1.1725601834409105
tp1721
a(F1.565144906118625
F1.8009972602385182
F-1.969372436342938
F0.1683751747804514
F-6.145692422448444e-10
F1.5651449061196228
tp1722
a(tag20
(g52
g22
Ntp1723
Rp1724
(lp1725
I3
aI592017225
ababag20
(g47
g22
Ntp1726
Rp1727
(lp1728
(F1.2627818284334433
F-1.4549069140764133
F1.6388187548066986
F4.528477139882827
F-1.570796326127795
F2.8335781593655005
tp1729
a(F-1.143822357972811
F0.08453333788192426
F-0.16105130413313118
F0.07651796701633329
F-2.4324645788093637e-10
F-1.1438223579728184
tp1730
a(F2.2480245843382476
F1.6538875013381613
F-1.7715297586613252
F0.11764225554929635
F-4.0122429156997254e-10
F2.2480245843372972
tp1731
a(tag20
(g52
g22
Ntp1732
Rp1733
(lp1734
I3
aI607028829
ababag20
(g47
g22
Ntp1735
Rp1736
(lp1737
(F1.245471274718052
F-1.4534152589947655
F1.6361378112383023
F4.529666428381123
F-1.570796326131579
F2.816267605650109
tp1738
a(F-1.110182711627778
F0.10904520693595651
F-0.1873701037154561
F0.07832489751805474
F-2.4898970314965685e-10
F-1.110182711627771
tp1739
a(F2.132639391253818
F1.5384854070918363
F-1.6560773075596151
F0.11759189878149691
F-3.4707318439072367e-10
F2.1326393912565758
tp1740
a(tag20
(g52
g22
Ntp1741
Rp1742
(lp1743
I3
aI622392069
ababag20
(g47
g22
Ntp1744
Rp1745
(lp1746
(F1.2282869207765312
F-1.4515139743903351
F1.6329914234287337
F4.530911531597661
F-1.5707963261355338
F2.7990832517085886
tp1747
a(F-1.0775324023055188
F0.1323762733218263
F-0.21256334289783912
F0.08018707028867983
F-2.5403088024743153e-10
F-1.0775324023054975
tp1748
a(F2.0244217388230474
F1.4323628870638148
F-1.5517753657146693
F0.11941247704113898
F-2.9516430092270903e-10
F2.024421738822125
tp1749
a(tag20
(g52
g22
Ntp1750
Rp1751
(lp1752
I3
aI638105433
ababag20
(g47
g22
Ntp1753
Rp1754
(lp1755
(F1.21123825918032
F-1.449205036886483
F1.6293793127814749
F4.532214704752309
F-1.5707963261396516
F2.7820345901123775
tp1756
a(F-1.0458423337505434
F0.1545888660713933
F-0.2367212678488858
F0.0821324024649687
F-2.5839408125743287e-10
F-1.0458423337505365
tp1757
a(F1.922858554313762
F1.3346995610939119
F-1.4574916088647536
F0.12279204624280532
F-2.4866275541295805e-10
F1.922858554312914
tp1758
a(tag20
(g52
g22
Ntp1759
Rp1760
(lp1761
I3
aI654167092
ababag20
(g47
g22
Ntp1762
Rp1763
(lp1764
(F1.1943343618009672
F-1.4464908030172883
F1.625301110209789
F4.533578673465876
F-1.5707963261439244
F2.765130692733025
tp1765
a(F-1.0101340933747522
F0.17482086535255414
F-0.2585846487777178
F0.08376378408493734
F-2.608086683224625e-10
F-1.0101340933747522
tp1766
a(F2.4124245216242155
F1.1279459285400373
F-1.2041164919789877
F0.07617056160273611
F-4.75410124964315e-11
F2.4124245216242155
tp1767
a(tag20
(g52
g22
Ntp1768
Rp1769
(lp1770
I3
aI670574919
ababag20
(g47
g22
Ntp1771
Rp1772
(lp1773
(F1.1775838547345974
F-1.4433739869313311
F1.6207563475224462
F4.535006620078166
F-1.5707963261483437
F2.748380185666655
tp1774
a(F-0.9707190090251067
F0.19294353874254175
F-0.2780288012504053
F0.08508526313768017
F-2.6129776539869567e-10
F-0.9707190090251067
tp1775
a(F2.248891555226369
F1.015842882577665
F-1.0958123516129468
F0.07996946732862963
F-1.0827745664420083e-11
F2.248891555226369
tp1776
a(tag20
(g52
g22
Ntp1777
Rp1778
(lp1779
I3
aI687494035
ababag20
(g47
g22
Ntp1780
Rp1781
(lp1782
(F1.1609948967499177
F-1.4398576352380696
F1.6157444476797747
F4.536502168238302
F-1.5707963261529014
F2.7317912276819754
tp1783
a(F-0.9328418876889646
F0.2097627258550812
F-0.29628096541258375
F0.08651824015856219
F-2.6118952904929545e-10
F-0.9328418876889584
tp1784
a(F2.097636568227922
F0.9147222125933261
F-0.9990415302094343
F0.08431931602282397
F2.274123088136085e-11
F2.0976365682286184
tp1785
a(tag20
(g52
g22
Ntp1786
Rp1787
(lp1788
I3
aI704930334
ababag20
(g47
g22
Ntp1789
Rp1790
(lp1791
(F1.1445751613398296
F-1.4359450992218101
F1.6102647138545076
F4.538069366057851
F-1.5707963261575886
F2.7153714922718875
tp1792
a(F-0.8920931875397635
F0.22420739331778405
F-0.31184280600638814
F0.08763541325928181
F-2.5924362807083016e-10
F-0.8920931875397515
tp1793
a(F2.4227073584862544
F0.6934326570829058
F-0.7339486077876779
F0.04051594892672907
F1.9050889010258305e-10
F2.42270735848623
tp1794
a(tag20
(g52
g22
Ntp1795
Rp1796
(lp1797
I3
aI722889528
ababag20
(g47
g22
Ntp1798
Rp1799
(lp1800
(F1.1283318224062586
F-1.4316400046610733
F1.6043163172211459
F4.539712668140828
F-1.5707963261623967
F2.6991281533383167
tp1801
a(F-0.8446986031003922
F0.23503132523228767
F-0.323025266619019
F0.08799394192310318
F-2.54280626581929e-10
F-0.8446986031003807
tp1802
a(F2.63468501778185
F0.46757043457733194
F-0.4662625343513857
F-0.001307902109666884
F3.363785849943708e-10
F2.634685017781821
tp1803
a(tag20
(g52
g22
Ntp1804
Rp1805
(lp1806
I3
aI741562046
ababag20
(g47
g22
Ntp1807
Rp1808
(lp1809
(F1.1122715435593067
F-1.4269462194983569
F1.5978982833860536
F4.541436916823362
F-1.570796326167317
F2.683067874491365
tp1810
a(F-0.7957442942766085
F0.2432636895377408
F-0.3312851130326966
F0.08802142399638893
F-2.4770269818281666e-10
F-0.7957442942766029
tp1811
a(F2.3654263542074854
F0.374420646114571
F-0.3784046338245103
F0.0039839860249239875
F3.3465154880641654e-10
F2.3654263542069214
tp1812
a(tag20
(g52
g22
Ntp1813
Rp1814
(lp1815
I3
aI761159917
ababag20
(g47
g22
Ntp1816
Rp1817
(lp1818
(F1.0964004709662656
F-1.4218678196068149
F1.591009477358203
F4.5432473229696315
F-1.5707963261723403
F2.667196801898324
tp1819
a(F-0.7460268404508328
F0.24887990758062417
F-0.33659569849385207
F0.08771579137963864
F-2.3971182810979157e-10
F-0.7460268404508379
tp1820
a(F2.4541623747968457
F0.17551708711757075
F-0.14285620465330257
F-0.03266088417527552
F4.3764252135265667e-10
F2.454162374796363
tp1821
a(tag20
(g52
g22
Ntp1822
Rp1823
(lp1824
I3
aI781718365
ababag20
(g47
g22
Ntp1825
Rp1826
(lp1827
(F1.080724229644183
F-1.4164090528961557
F1.5836485869468981
F4.545149446680037
F-1.5707963261774582
F2.651520560576241
tp1828
a(F-0.6892160249931161
F0.2494764110872177
F-0.3356966797771258
F0.08622026911731402
F-2.282235065336334e-10
F-0.6892160249931165
tp1829
a(F2.724528635886158
F-0.11139055947469977
F0.21297657297368633
F-0.10158601534522646
F6.057774324722201e-10
F2.724528635887026
tp1830
a(tag20
(g52
g22
Ntp1831
Rp1832
(lp1833
I3
aI803489227
ababag20
(g47
g22
Ntp1834
Rp1835
(lp1836
(F1.065247923052223
F-1.4105743019901602
F1.5758141044577647
F4.547149178272731
F-1.5707963261826619
F2.636044253984281
tp1837
a(F-0.6242469733820528
F0.2440159164795735
F-0.32719263862857495
F0.08317672253290793
F-2.1270846294453804e-10
F-0.6242469733820482
tp1838
a(F2.764263947456121
F-0.34014649398960767
F0.4935221394393895
F-0.15337564728034703
F7.012512194765619e-10
F2.7642639474557384
tp1839
a(tag20
(g52
g22
Ntp1840
Rp1841
(lp1842
I3
aI826996018
ababag20
(g47
g22
Ntp1843
Rp1844
(lp1845
(F1.0499761358074964
F-1.404368045692827
F1.567504306541269
F4.549252719901244
F-1.5707963261879425
F2.6207724667395547
tp1846
a(F-0.5502638262626407
F0.23127356232445306
F-0.3094227254297425
F0.07814916344084752
F-1.9265791443320437e-10
F-0.5502638262626407
tp1847
a(F2.8780147855708234
F-0.6169021720663367
F0.8432130313543919
F-0.22631086114735985
F8.226977187680082e-10
F2.8780147855708234
tp1848
a(tag20
(g52
g22
Ntp1849
Rp1850
(lp1851
I3
aI852875228
ababag20
(g47
g22
Ntp1852
Rp1853
(lp1854
(F1.0349129393206882
F-1.397794819439377
F1.5587172320285172
F4.551466568169689
F-1.570796326193292
F2.6057092702527465
tp1855
a(F-0.485282524670149
F0.21881493722748308
F-0.2924341783304891
F0.07361924139632661
F-1.7444817623993282e-10
F-0.48528252467014554
tp1856
a(F1.6267222408967248
F-0.253513327430885
F0.3438908756184901
F-0.09037754925518322
F4.413423650067171e-10
F1.6267222408969475
tp1857
a(tag20
(g52
g22
Ntp1858
Rp1859
(lp1860
I3
aI882387202
ababag20
(g47
g22
Ntp1861
Rp1862
(lp1863
(F1.0200619001258004
F-1.3908591749024957
F1.5494506575665723
F4.553797498103687
F-1.5707963261987021
F2.590858231057859
tp1864
a(F-0.40608878397305054
F0.19516200998549527
F-0.2607982048797711
F0.06563619513763197
F-1.4950539735060428e-10
F-0.40608878397304976
tp1865
a(F2.9284411163378423
F-1.0690287862581607
F1.4258060143591933
F-0.3567772299141131
F9.817470475425566e-10
F2.9284411163375115
tp1866
a(tag20
(g52
g22
Ntp1867
Rp1868
(lp1869
I3
aI914661168
ababag20
(g47
g22
Ntp1870
Rp1871
(lp1872
(F1.0054260906617167
F-1.3835656388934048
F1.539702070839213
F4.556252548830681
F-1.5707963262041644
F2.576222421593775
tp1873
a(F-0.27549997097928475
F0.14047908426663433
F-0.18785111117230519
F0.04737202706938783
F-1.0368952593745365e-10
F-0.2754999709792874
tp1874
a(F2.684126156746155
F-1.2257770568388333
F1.6353693607544846
F-0.4095923055349529
F9.712762345902088e-10
F2.6841261567462484
tp1875
a(tag20
(g52
g22
Ntp1876
Rp1877
(lp1878
I3
aI956237552
ababag20
(g47
g22
Ntp1879
Rp1880
(lp1881
(F0.9910081022518864
F-1.3759186716618705
F1.5294686411281533
F4.5588390113187245
F-1.5707963262096714
F2.5618044331839447
tp1882
a(F-0.09948888177173507
F0.06811913946782781
F0.012785834796954193
F-0.08090497420600423
F-3.799962263018135e-11
F-0.09948888177173551
tp1883
a(F1.997844507742198
F-0.7513148207895535
F3.0927665095817467
F-2.3414516899724442
F7.630736225377274e-10
F1.9978445077421891
tp1884
a(tag20
(g52
g22
Ntp1885
Rp1886
(lp1887
I4
aI28697853
ababag20
(g47
g22
Ntp1888
Rp1889
(lp1890
(F0.9910081015796229
F-1.3720273511012742
F1.5506075294062576
F4.533808802480024
F-1.5707963262096714
F2.561804432511681
tp1891
a(F-8.9986394365203e-09
F0.05754010069143836
F0.27720431689140484
F-0.3347444175828457
F0.0
F-8.998639874539853e-09
tp1892
a(F-8.222823303027607e-08
F0.5973398832316793
F2.4575742217187195
F-3.0549141049505315
F0.0
F-8.222822328008502e-08
tp1893
a(tag20
(g52
g22
Ntp1894
Rp1895
(lp1896
I4
aI155429983
ababag20
(g47
g22
Ntp1897
Rp1898
(lp1899
(F0.9910081009073594
F-1.3675584500107185
F1.57113710934877
F4.508810321446956
F-1.5707963262096714
F2.5618044318394175
tp1900
a(F-1.4584851840067329e-08
F0.10400990597568187
F0.4380365456181807
F-0.5420464515938694
F0.0
F-1.458485047950104e-08
tp1901
a(F-8.072011539221051e-08
F0.8376194734153722
F2.1512428377518185
F-2.9888623111671286
F0.0
F-8.072005735049156e-08
tp1902
a(tag20
(g52
g22
Ntp1903
Rp1904
(lp1905
I4
aI208394663
ababag20
(g47
g22
Ntp1906
Rp1907
(lp1908
(F0.9910081002350961
F-1.3625137422746698
F1.591066465987212
F4.483836257072465
F-1.5707963262096714
F2.5618044311671544
tp1909
a(F-1.7902091108477977e-08
F0.14259485901145014
F0.5221910255212823
F-0.6647858845327416
F0.0
F-1.790208974791169e-08
tp1910
a(F-7.541680275361395e-08
F1.0028744329631594
F1.7848793021086526
F-2.787753735072007
F0.0
F-7.541687475705601e-08
tp1911
a(tag20
(g52
g22
Ntp1912
Rp1913
(lp1914
I4
aI249194697
ababag20
(g47
g22
Ntp1915
Rp1916
(lp1917
(F0.9910080995628325
F-1.3568946621770324
F1.6104031609422462
F4.458880482019793
F-1.5707963262096714
F2.561804430494891
tp1918
a(F-2.0563048119030545e-08
F0.18116808730272604
F0.5819584954133158
F-0.7631265827160411
F0.0
F-2.056304991904548e-08
tp1919
a(F-7.53332904700523e-08
F1.1961153947006284
F1.587297113614594
F-2.783412508314391
F0.0
F-7.533340018919256e-08
tp1920
a(tag20
(g52
g22
Ntp1921
Rp1922
(lp1923
I4
aI283978065
ababag20
(g47
g22
Ntp1924
Rp1925
(lp1926
(F0.9910080988905691
F-1.3507024091731317
F1.6291534125218998
F4.433937977436239
F-1.5707963262096714
F2.5618044298226272
tp1927
a(F-2.283975066910758e-08
F0.2205395248171655
F0.6267012522629507
F-0.8472407770801208
F0.0
F-2.2839752469122513e-08
tp1928
a(F-7.057494236994701e-08
F1.3390918281020647
F1.2681463266833835
F-2.607238154786739
F0.0
F-7.057482031507809e-08
tp1929
a(tag20
(g52
g22
Ntp1930
Rp1931
(lp1932
I4
aI314817338
ababag20
(g47
g22
Ntp1933
Rp1934
(lp1935
(F0.9910080982183055
F-1.3439380452978162
F1.6473222138930792
F4.409004812189743
F-1.5707963262096714
F2.5618044291503637
tp1936
a(F-2.4773337517251344e-08
F0.2601728898494243
F0.6585063340568387
F-0.9186792239062707
F0.0
F-2.4773339636592368e-08
tp1937
a(F-6.571331902255878e-08
F1.463645680201795
F0.9644522247652353
F-2.4280979049658473
F0.0
F-6.571347501782418e-08
tp1938
a(tag20
(g52
g22
Ntp1939
Rp1940
(lp1941
I4
aI342968418
ababag20
(g47
g22
Ntp1942
Rp1943
(lp1944
(F0.991008097546042
F-1.3366025881207593
F1.6649134395922214
F4.3840781293135445
F-1.5707963262096714
F2.5618044284781
tp1945
a(F-2.5206946488070877e-08
F0.2855398258728067
F0.6490157255025015
F-0.9345555513753081
F0.0
F-2.5206952694434284e-08
tp1946
a(F3.4422146973711584e-08
F0.4109617119761931
F-1.693760048966793
F1.2827983369899756
F0.0
F3.442199946373303e-08
tp1947
a(tag20
(g52
g22
Ntp1948
Rp1949
(lp1950
I4
aI369161065
ababag20
(g47
g22
Ntp1951
Rp1952
(lp1953
(F0.9910080968737787
F-1.3286970999346615
F1.6819299423757141
F4.359156138343954
F-1.5707963262096714
F2.5618044278058365
tp1954
a(F-2.373761293859024e-08
F0.2887581242103995
F0.5911699865739932
F-0.8799281107844006
F0.0
F-2.3737617025612623e-08
tp1955
a(F7.120869106708198e-08
F-0.15956921122451576
F-2.4849972171304717
F2.644566428355009
F0.0
F7.120897916978593e-08
tp1956
a(tag20
(g52
g22
Ntp1957
Rp1958
(lp1959
I4
aI396325659
ababag20
(g47
g22
Ntp1960
Rp1961
(lp1962
(F0.9910080962015151
F-1.3202227736549323
F1.6983736420895668
F4.334238112350372
F-1.5707963262096714
F2.561804427133573
tp1963
a(F-2.1618874759749745e-08
F0.2811761894215898
F0.5200803762882171
F-0.8012565657098074
F0.0
F-2.161887645335732e-08
tp1964
a(F7.111220035243903e-08
F-0.3411551143883888
F-2.298885441537321
F2.640040555926169
F0.0
F7.111209171165975e-08
tp1965
a(tag20
(g52
g22
Ntp1966
Rp1967
(lp1968
I4
aI425905029
ababag20
(g47
g22
Ntp1969
Rp1970
(lp1971
(F0.9910080955292516
F-1.311181015726806
F1.7142456079719142
F4.309324388539898
F-1.5707963262096714
F2.5618044264613093
tp1972
a(F-1.9233149228755358e-08
F0.2662358010580421
F0.4464581353420092
F-0.712693936400042
F0.0
F-1.923315092236293e-08
tp1973
a(F7.275529536297719e-08
F-0.5481400312684486
F-2.1524768827318166
F2.700616914000409
F0.0
F7.275539184233356e-08
tp1974
a(tag20
(g52
g22
Ntp1975
Rp1976
(lp1977
I4
aI458681897
ababag20
(g47
g22
Ntp1978
Rp1979
(lp1980
(F0.991008094856988
F-1.301573526172706
F1.7295461355793418
F4.284416371378371
F-1.5707963262096714
F2.5618044257890458
tp1981
a(F-1.929986186675511e-08
F0.284473668899085
F0.4304794050960698
F-0.7149530739951421
F0.0
F-1.9299865276005607e-08
tp1982
a(F-7.678737437878892e-08
F1.5918953996076228
F1.2459794499525358
F-2.837874849560108
F0.0
F-7.678756918052114e-08
tp1983
a(tag20
(g52
g22
Ntp1984
Rp1985
(lp1986
I4
aI496121400
ababag20
(g47
g22
Ntp1987
Rp1988
(lp1989
(F0.9910080941847247
F-1.2914023757657576
F1.7442748193392614
F4.259516537211503
F-1.5707963262096714
F2.561804425116782
tp1990
a(F-2.1787891743254955e-08
F0.33921532111538133
F0.46758207006483443
F-0.8067973911802127
F0.0
F-2.1787898939666555e-08
tp1991
a(F-7.395963347612153e-08
F1.7376524659467567
F0.9887849123941239
F-2.726437378341566
F0.0
F-7.395965790455033e-08
tp1992
a(tag20
(g52
g22
Ntp1993
Rp1994
(lp1995
I4
aI528686418
ababag20
(g47
g22
Ntp1996
Rp1997
(lp1998
(F0.9910080935124613
F-1.2806700801824928
F1.758430621568191
F4.234628439399309
F-1.5707963262096714
F2.5618044244445186
tp1999
a(F-2.3877955012214413e-08
F0.3915020300608807
F0.49218963749378053
F-0.8836916675546609
F0.0
F-2.387795674958352e-08
tp2000
a(F-6.708885822435456e-08
F1.8018770818420873
F0.660388610573169
F-2.4622656924146975
F0.0
F-6.708844423256438e-08
tp2001
a(tag20
(g52
g22
Ntp2002
Rp2003
(lp2004
I4
aI558001860
ababag20
(g47
g22
Ntp2005
Rp2006
(lp2007
(F0.9910080928401976
F-1.2693796708679148
F1.772011938653948
F4.209756712998974
F-1.5707963262096714
F2.561804423772255
tp2008
a(F-2.437479335366889e-08
F0.41923254667436594
F0.48216815835196136
F-0.9014007050263074
F0.0
F-2.43747913038769e-08
tp2009
a(F3.2552858339261095e-08
F0.16857709486910233
F-1.4014265577328215
F1.2328494628645703
F0.0
F3.255270974785851e-08
tp2010
a(tag20
(g52
g22
Ntp2011
Rp2012
(lp2013
I4
aI585083218
ababag20
(g47
g22
Ntp2014
Rp2015
(lp2016
(F0.9910080921679341
F-1.257534762239014
F1.7850166649740087
F4.1849070780500135
F-1.5707963262096714
F2.5618044230999915
tp2017
a(F-2.2827159712894008e-08
F0.41109411345296953
F0.43222493365039544
F-0.8433190471033599
F0.0
F-2.2827161507099612e-08
tp2018
a(F7.443275947131738e-08
F-0.7089733138399733
F-2.0740054823720446
F2.7829787962102146
F0.0
F7.443263790661036e-08
tp2019
a(tag20
(g52
g22
Ntp2020
Rp2021
(lp2022
I4
aI613181149
ababag20
(g47
g22
Ntp2023
Rp2024
(lp2025
(F0.9910080914956706
F-1.2451396147589184
F1.7974422550090157
F4.16008634053491
F-1.5707963262096714
F2.561804422427728
tp2026
a(F-2.0489151524496298e-08
F0.3855843012121816
F0.3703719662537678
F-0.7559562674659601
F0.0
F-2.0489154908218437e-08
tp2027
a(F7.527421491974186e-08
F-0.91377684057758
F-1.8974203603098299
F2.8111972008880675
F0.0
F7.527422735105355e-08
tp2028
a(tag20
(g52
g22
Ntp2029
Rp2030
(lp2031
I4
aI644120274
ababag20
(g47
g22
Ntp2032
Rp2033
(lp2034
(F0.9910080908234071
F-1.2321991933341836
F1.8092857840070233
F4.135302390112168
F-1.5707963262096714
F2.5618044217554643
tp2035
a(F-1.7809773813346648e-08
F0.34939007070950384
F0.3066355994465222
F-0.6560256701560179
F0.0
F-1.7809778106292392e-08
tp2036
a(F7.579590422201317e-08
F-1.1132097321542536
F-1.7104344084625875
F2.823644140617266
F0.0
F7.579584558770585e-08
tp2037
a(tag20
(g52
g22
Ntp2038
Rp2039
(lp2040
I4
aI679043567
ababag20
(g47
g22
Ntp2041
Rp2042
(lp2043
(F0.9910080901511438
F-1.2187192204236652
F1.8205440074585826
F4.110564193750091
F-1.5707963262096714
F2.5618044210832007
tp2044
a(F-1.4560175662101996e-08
F0.297009938063877
F0.23825164725045672
F-0.5352615853143277
F0.0
F-1.4560177312676428e-08
tp2045
a(F7.717771558258991e-08
F-1.3319649527350033
F-1.5306167272728926
F2.86258168000746
F0.0
F7.717787577957473e-08
tp2046
a(tag20
(g52
g22
Ntp2047
Rp2048
(lp2049
I4
aI720110780
ababag20
(g47
g22
Ntp2050
Rp2051
(lp2052
(F0.9910080894788801
F-1.2047062232006445
F1.8312134195538194
F4.085881784431833
F-1.5707963262096714
F2.561804420410937
tp2053
a(F-8.9948768391408e-09
F0.18954201750983563
F0.14044769754223954
F-0.32998971505207814
F0.0
F-8.994875353663978e-09
tp2054
a(F8.298035642875958e-08
F-1.684425644272516
F-1.3679845890135784
F3.0524102332861216
F0.0
F8.298034272481254e-08
tp2055
a(tag20
(g52
g22
Ntp2056
Rp2057
(lp2058
I4
aI772835194
ababag20
(g47
g22
Ntp2059
Rp2060
(lp2061
(F0.9910080888066168
F-1.190167574082212
F1.8412903107093659
F4.061266244157854
F-1.5707963262096714
F2.561804419738674
tp2062
a(F0.0
F0.0
F0.0
F0.0
F0.0
F0.0
tp2063
a(F8.166316411337302e-08
F-1.7660821079376254
F-1.2240901495368255
F2.9901722574744776
F0.0
F8.166315062694108e-08
tp2064
a(tag20
(g52
g22
Ntp2065
Rp2066
(lp2067
I4
aI901148466
ababaabag20
(g56
g22
Ntp2068
Rp2069
(lp2070
g20
(g30
g22
Ntp2071
Rp2072
(lp2073
I0
ag20
(g34
g22
Ntp2074
Rp2075
(lp2076
I0
aI0
abag66
aba(lp2077
a(lp2078
ababssS'sequence'
p2079
(dp2080
S'operations'
p2081
(lp2082
(dp2083
S'arm'
p2084
S'pre'
p2085
sS'hand'
p2086
S'startup'
p2087
sa(dp2088
S'arm'
p2089
I00
sS'hand'
p2090
S'grasp'
p2091
sa(dp2092
S'arm'
p2093
S'move'
p2094
sS'hand'
p2095
I00
sa(dp2096
S'arm'
p2097
I00
sS'hand'
p2098
S'release'
p2099
sa(dp2100
S'arm'
p2101
S'post'
p2102
sS'hand'
p2103
I00
sasS'setup'
p2104
(dp2105
S'hand_traj_space'
p2106
S'pressure'
p2107
sS'arm_traj_space'
p2108
S'joint-planned'
p2109
ssS'startup'
p2110
(dp2111
S'arm'
p2112
S'pre'
p2113
sS'hand'
p2114
S'startup'
p2115
sss.