(dp0
S'hand'
p1
(dp2
S'grasp'
p3
(lp4
(lp5
F0.0
aF0.0
aF0.0
aF0.0
aF0.0
aa(lp6
F2.0
aF15.0
aF0.0
aF15.0
aF0.0
aa(lp7
F3.0
aF15.0
aF0.0
aF15.0
aF0.0
aasS'release'
p8
(lp9
(lp10
F0.0
aF15.0
aF0.0
aF15.0
aF0.0
aa(lp11
F2.0
aF0.0
aF0.0
aF0.0
aF0.0
aa(lp12
F3.0
aF0.0
aF0.0
aF0.0
aF0.0
aasS'startup'
p13
(lp14
(lp15
F0.0
aF0.0
aF0.0
aF0.0
aF0.0
aa(lp16
F0.0
aF0.0
aF0.0
aF0.0
aF0.0
aassS'arm'
p17
(dp18
S'pre'
p19
ccopy_reg
_reconstructor
p20
(ccontrol_msgs.msg._FollowJointTrajectoryGoal
FollowJointTrajectoryGoal
p21
c__builtin__
object
p22
Ntp23
Rp24
(lp25
g20
(ctrajectory_msgs.msg._JointTrajectory
JointTrajectory
p26
g22
Ntp27
Rp28
(lp29
g20
(cstd_msgs.msg._Header
Header
p30
g22
Ntp31
Rp32
(lp33
I0
ag20
(cgenpy.rostime
Time
p34
g22
Ntp35
Rp36
(lp37
I0
aI0
abaS''
p38
aba(lp39
S'shoulder_pan_joint'
p40
aS'shoulder_lift_joint'
p41
aS'elbow_joint'
p42
aS'wrist_1_joint'
p43
aS'wrist_2_joint'
p44
aS'wrist_3_joint'
p45
aa(lp46
g20
(ctrajectory_msgs.msg._JointTrajectoryPoint
JointTrajectoryPoint
p47
g22
Ntp48
Rp49
(lp50
(F-0.0004955525476422196
F0.011801413272073624
F0.00018053080711410985
F0.0006413757533332287
F-1.3494840164440802e-05
F5.3428276869382785e-05
tp51
a(F0.0
F0.0
F0.0
F0.0
F0.0
F0.0
tp52
a(F1.7433150978428924
F0.0
F0.0
F0.0
F0.0
F0.0
tp53
a(tag20
(cgenpy.rostime
Duration
p54
g22
Ntp55
Rp56
(lp57
I0
aI0
ababag20
(g47
g22
Ntp58
Rp59
(lp60
(F3.473659270682852
F-3.0356726597693897
F-0.23441209731694726
F-3.056048458556802
F-2.8088509071864123
F6.255175555791176
tp61
a(F0.8792709862138459
F-0.7065956310334192
F-0.16279095026497706
F-0.7714679798106132
F-0.6933389702085943
F1.5163283252668491
tp62
a(F-1.445733367267894
F1.3768025870538239
F-0.07604507576528821
F1.275615308360895
F1.198335486806885
F-2.715138807448247
tp63
a(tag20
(g54
g22
Ntp64
Rp65
(lp66
I1
aI996418734
ababag20
(g47
g22
Ntp67
Rp68
(lp69
(F3.4807335170663776
F-2.9919980335892737
F-0.3146352244030449
F-3.0606169909161993
F-2.8010396599741543
F6.216422208599867
tp70
a(F0.05468987951892492
F0.2865813237379549
F-0.5171201915220289
F-0.06937456607035371
F0.06344281690495404
F-0.28132482594410785
tp71
a(F0.31254204987771905
F1.490428939989701
F-2.657840665512264
F-0.4947261499925981
F0.37137905285473655
F-1.5549977601040879
tp72
a(tag20
(g54
g22
Ntp73
Rp74
(lp75
I2
aI381967500
ababag20
(g47
g22
Ntp76
Rp77
(lp78
(F3.487975794262232
F-2.9554105530245445
F-0.3803633966200836
F-3.0707128961001233
F-2.7925567282608275
F6.17965561453677
tp79
a(F0.11094654066119763
F0.5183143969181596
F-0.9230993252568529
F-0.17127989729297952
F0.13377571353514542
F-0.537769549797094
tp80
a(F0.5848028752017155
F1.7157939995081652
F-2.846422953149262
F-1.3032026713567477
F0.7972510391885252
F-2.220975160302081
tp81
a(tag20
(g54
g22
Ntp82
Rp83
(lp84
I2
aI461525646
ababag20
(g47
g22
Ntp85
Rp86
(lp87
(F3.4953905183055425
F-2.9227317584667065
F-0.4381592123396986
F-3.08293234923533
F-2.7834385547953255
F6.144899697828179
tp88
a(F0.14894762866294683
F0.6204915721854035
F-1.0904633246009823
F-0.2494077004321535
F0.187367312177135
F-0.6669545111227122
tp89
a(F0.7084679442901592
F1.713657331368353
F-2.75892306848467
F-1.3219823296653557
F1.0357806283116486
F-2.0977051784597047
tp90
a(tag20
(g54
g22
Ntp91
Rp92
(lp93
I2
aI518186353
ababag20
(g47
g22
Ntp94
Rp95
(lp96
(F3.5029824261492775
F-2.89254119745362
F-0.4909234682023253
F-3.0958021628927357
F-2.77372064120262
F6.11215172461326
tp97
a(F0.18384760879187875
F0.699005792904767
F-1.2152725050276192
F-0.30701938621118874
F0.23962110222545036
F-0.7573006995396087
tp98
a(F0.7988437814164596
F1.6518274841218499
F-2.5835662524449563
F-1.1337847827300431
F1.2263473479671843
F-1.7481770853803427
tp99
a(tag20
(g54
g22
Ntp100
Rp101
(lp102
I2
aI563637782
ababag20
(g47
g22
Ntp103
Rp104
(lp105
(F3.510756301522955
F-2.8641139356618472
F-0.5401112813705061
F-3.1086209797272404
F-2.7634374353123357
F6.081387482771319
tp106
a(F0.2169215463118648
F0.7638102815296641
F-1.3154451932854845
F-0.34691106129599847
F0.2911180841556575
F-0.8191620624946071
tp107
a(F0.8924006764131093
F1.6485280504598665
F-2.513325795513181
F-0.8796592419089057
F1.409676285648007
F-1.3756936726975868
tp108
a(tag20
(g54
g22
Ntp109
Rp110
(lp111
I2
aI602378966
ababag20
(g47
g22
Ntp112
Rp113
(lp114
(F3.518717055532134
F-2.837012193033998
F-0.5865836426780169
F-3.1210116192330775
F-2.7526218658655477
F6.052565755917532
tp115
a(F0.249544731778469
F0.8219195708488108
F-1.4031103845512396
F-0.3732533460470432
F0.3429560228969841
F-0.8613440038442975
tp116
a(F1.0100965889568911
F1.7328976868298198
F-2.5846997055994216
F-0.6367140578540956
F1.6144143359695167
F-1.0565811126672309
tp117
a(tag20
(g54
g22
Ntp118
Rp119
(lp120
I2
aI636518728
ababag20
(g47
g22
Ntp121
Rp122
(lp123
(F3.5268697257716655
F-2.8109516664018086
F-0.6308863936591782
F-3.1327717081471897
F-2.7413050768143608
F6.02563240245923
tp124
a(F0.28364014193573805
F0.880029676256185
F-1.489429946718659
F-0.39082037211909826
F0.39730474183910425
F-0.8923567180362959
tp125
a(F1.2152367011172855
F2.058571192116995
F-3.0461664590916677
F-0.497029236890119
F1.9323341970925108
F-0.9523595615430979
tp126
a(tag20
(g54
g22
Ntp127
Rp128
(lp129
I2
aI667178449
ababag20
(g47
g22
Ntp130
Rp131
(lp132
(F3.535219476475686
F-2.7857375452202784
F-0.6733836776159225
F-3.143800624614257
F-2.7295162615061286
F6.000523954137326
tp133
a(F0.317381446466509
F0.9327132780429968
F-1.5650185004523562
F-0.39900708252175804
F0.4512053234672074
F-0.9083212735405071
tp134
a(F1.2001506681605727
F1.6976895627023552
F-2.3344916123988306
F-0.07004569533324023
F1.9270060173622998
F-0.15505298802209205
tp135
a(tag20
(g54
g22
Ntp136
Rp137
(lp138
I2
aI694884233
ababag20
(g47
g22
Ntp139
Rp140
(lp141
(F3.543771598515195
F-2.761230715437029
F-0.7143282690415715
F-3.1540599010087513
F-2.717282579545704
F5.977170689802274
tp142
a(F0.34871080612829297
F0.9743260718867006
F-1.6203419047144685
F-0.3971584968644444
F0.5013713176589139
F-0.905490224479637
tp143
a(F1.232613708333178
F1.526006375365357
F-1.945676102637091
F0.22391005956341678
F1.9680607446328933
F0.39419163207365465
tp144
a(tag20
(g54
g22
Ntp145
Rp146
(lp147
I2
aI720536178
ababag20
(g47
g22
Ntp148
Rp149
(lp150
(F3.552531509007165
F-2.7373284691874598
F-0.7539015306776347
F-3.1635500158290406
F-2.704629139073235
F5.955499187039177
tp151
a(F0.3803133993400941
F1.0132202615508579
F-1.6694398847692222
F-0.39046392988923484
F0.5513080138821904
F-0.8937037313395557
tp152
a(F1.3949716390648854
F1.7072529302587667
F-2.134567785841404
F0.33511845705339227
F2.1825873298606453
F0.5900388574693068
tp153
a(tag20
(g54
g22
Ntp154
Rp155
(lp156
I2
aI744599828
ababag20
(g47
g22
Ntp157
Rp158
(lp159
(F3.561504750415458
F-2.7139528270497633
F-0.792237419582271
F-3.1722960132833715
F-2.691579028839203
F5.935434384913961
tp160
a(F0.40763766719407146
F1.0383082512055521
F-1.6943552534502162
F-0.3764261529608426
F0.5941411526365521
F-0.8654740827560699
tp161
a(F0.9907102749932764
F0.463011824752347
F2.988422413730599e-14
F0.9085639865509029
F1.5573704447690233
F1.9149448269019085
tp162
a(tag20
(g54
g22
Ntp163
Rp164
(lp165
I2
aI767225478
ababag20
(g47
g22
Ntp166
Rp167
(lp168
(F3.5706969890497673
F-2.6910431417969822
F-0.8294375274215515
F-3.1803382458731266
F-2.678153386706298
F5.916901208369864
tp169
a(F0.42357765119679003
F1.0334265729660257
F-1.6694398847692213
F-0.35122795797140705
F0.6192882665584535
F-0.8105322464373667
tp170
a(F0.4459743835355002
F-0.9143008830455146
F2.2684738303401226
F1.372265651712134
F0.7092432185356965
F3.0591223903964804
tp171
a(tag20
(g54
g22
Ntp172
Rp173
(lp174
I2
aI789180795
ababag20
(g47
g22
Ntp175
Rp176
(lp177
(F3.580114012875742
F-2.668551245039861
F-0.8655808098873378
F-3.187726265056814
F-2.664371493496041
F5.899825812900562
tp178
a(F0.4332938479225627
F1.013779912263406
F-1.620341904714468
F-0.3222132730801296
F0.6341540924288152
F-0.7446994310766831
tp179
a(F0.4380017220323265
F-0.8731640085372752
F2.1984650917936532
F1.267540570606392
F0.6432845420840632
F2.930379547930955
tp180
a(tag20
(g54
g22
Ntp181
Rp182
(lp183
I2
aI811158748
ababag20
(g47
g22
Ntp184
Rp185
(lp186
(F3.589761728543049
F-2.6464381711575813
F-0.9007300393887996
F-3.194514732058341
F-2.650250883382732
F5.884136508866844
tp187
a(F0.4428917811778962
F0.9949916079723884
F-1.5726878889901763
F-0.2955763978294238
F0.6476906580409876
F-0.6816932421123463
tp188
a(F0.4335539470792382
F-0.8329743269303981
F2.128888782743266
F1.151383274788607
F0.5859838265669952
F2.7911251619146236
tp189
a(tag20
(g54
g22
Ntp190
Rp191
(lp192
I2
aI833179877
ababag20
(g47
g22
Ntp193
Rp194
(lp195
(F3.599646157533064
F-2.62467189429046
F-0.9349361709083284
F-3.200760666747168
F-2.635807464004529
F5.86976442184597
tp196
a(F0.452447797481747
F0.9770270614336021
F-1.5264353708189908
F-0.27148779293234393
F0.6600815520982902
F-0.6216405082100231
tp197
a(F0.4319327323018756
F-0.7941234537718955
F2.060281772636823
F1.0304870890964613
F0.5363263287854012
F2.6480332911558264
tp198
a(tag20
(g54
g22
Ntp199
Rp200
(lp201
I2
aI855259510
ababag20
(g47
g22
Ntp202
Rp203
(lp204
(F3.6097734313203205
F-2.603225734792866
F-0.9682413452617002
F-3.2065216029863186
F-2.6210556411634163
F5.856643939967918
tp205
a(F0.46202360808503273
F0.9598500544988626
F-1.4815431323651933
F-0.25000499920809366
F0.6714862744732683
F-0.5645618654059964
tp206
a(F0.4326386906348714
F-0.7568017800615832
F1.9930225781965492
F0.9093353122320891
F0.49344509404495146
F2.505672115283539
tp207
a(tag20
(g54
g22
Ntp208
Rp209
(lp210
I2
aI877409000
ababag20
(g47
g22
Ntp211
Rp212
(lp213
(F3.6201497854305753
F-2.582077218772031
F-1.0006809846476536
F-3.2118543678125313
F-2.6060084444326335
F5.844712992297987
tp214
a(F0.4716706261745732
F0.9434249459768292
F-1.4379711680035188
F-0.23111070417828908
F0.6820448971291203
F-0.5104061047166178
tp215
a(F0.4353231369214964
F-0.7210719937365593
F1.927377216619732
F0.7908481120704872
F0.456608065030663
F2.3671114627714402
tp216
a(tag20
(g54
g22
Ntp217
Rp218
(lp219
I2
aI899636578
ababag20
(g47
g22
Ntp220
Rp221
(lp222
(F3.6307815522730604
F-2.5612072503713375
F-1.0322852739952477
F-3.216814293376129
F-2.590677651059712
F5.833913196181311
tp223
a(F0.48143317986931533
F0.9277179550312393
F-1.3956806486682232
F-0.2147393728223041
F0.6918818183519806
F-0.4590743220135103
tp224
a(F0.43975227100223857
F-0.6869176442404816
F1.8635313217952163
F0.6768440097907349
F0.4252021383094753
F2.234358992806174
tp225
a(tag20
(g54
g22
Ntp226
Rp227
(lp228
I2
aI921947951
ababag20
(g47
g22
Ntp229
Rp230
(lp231
(F3.6416751526091615
F-2.5405995039043043
F-1.0630802208703864
F-3.221454730952523
F-2.575073906522519
F5.824189904246352
tp232
a(F0.48889372642729434
F0.9082159017705249
F-1.3480278634613345
F-0.1998334016407931
F0.6976158083493558
F-0.4085221460155704
tp233
a(F0.2256809247421878
F-1.048425106570917
F2.3783824422038555
F0.6508783382302704
F0.08700926324851757
F2.2679408183112852
tp234
a(tag20
(g54
g22
Ntp235
Rp236
(lp237
I2
aI944346703
ababag20
(g47
g22
Ntp238
Rp239
(lp240
(F3.6528370855156314
F-2.5202399727781444
F-1.0930884233465508
F-3.225826774838981
F-2.559206840690501
F5.8154921769253045
tp241
a(F0.49508175314336234
F0.8869540463978518
F-1.2981614136416593
F-0.18678211374125298
F0.7008062624330205
F-0.35978345425622416
tp242
a(F0.31923160487308233
F-0.8270665358774331
F2.019356935660495
F0.5004510774345093
F0.1935965266835815
F2.029679139793775
tp243
a(tag20
(g54
g22
Ntp244
Rp245
(lp246
I2
aI967059460
ababag20
(g47
g22
Ntp247
Rp248
(lp249
(F3.6642739166848344
F-2.500116632002838
F-1.1223296332696029
F-3.229979131816917
F-2.5430851791306552
F5.807772700439741
tp250
a(F0.5210628778031883
F0.9000985762558775
F-1.29816141364166
F-0.1827914477141917
F0.7310223682214934
F-0.3256283592728605
tp251
a(F2.008073423462782
F2.0300142993166834
F-2.0714525117355267
F-0.15462585069254914
F2.517647962327143
F0.9882883934710257
tp252
a(tag20
(g54
g22
Ntp253
Rp254
(lp255
I2
aI989991619
ababag20
(g47
g22
Ntp256
Rp257
(lp258
(F3.6759922648980075
F-2.480219183988284
F-1.1508211751602009
F-3.233958089914966
F-2.5267168494218972
F5.8009876665042475
tp259
a(F0.5661072077517256
F0.9439128653082346
F-1.341221670545189
F-0.18664677048397288
F0.7867463722315753
F-0.3017687960604658
tp260
a(F2.164753514865723
F2.024213799897455
F-1.908377717340048
F-0.2035688366425696
F2.6424975912498723
F1.2265841180082784
tp261
a(tag20
(g54
g22
Ntp262
Rp263
(lp264
I3
aI11556438
ababag20
(g47
g22
Ntp265
Rp266
(lp267
(F3.6879987864962596
F-2.460538866211936
F-1.1785782624612187
F-3.2378075535208186
F-2.5101090826296035
F5.7950966263205235
tp268
a(F0.5979864740937211
F0.9630773619137043
F-1.3478276943344945
F-0.18722099587062352
F0.8228324260412304
F-0.26869071230322755
tp269
a(F0.902620557988842
F-0.20342800389308452
F1.3195936346049886
F0.15359815510779753
F0.8234841515109947
F1.9888512356308634
tp270
a(tag20
(g54
g22
Ntp271
Rp272
(lp273
I3
aI31947491
ababag20
(g47
g22
Ntp274
Rp275
(lp276
(F3.7003001576643246
F-2.441068305453479
F-1.2056142402113526
F-3.2415691214607363
F-2.4932685102811667
F5.790062328287808
tp277
a(F0.6135886867665216
F0.9544363786286227
F-1.3147943050143998
F-0.1841649028447665
F0.8354247565722916
F-0.22784144476220616
tp278
a(F0.6335965645869958
F-0.6478463518342783
F1.9338612906781445
F0.1473461254172183
F0.416224813455198
F2.0338223633895884
tp279
a(tag20
(g54
g22
Ntp280
Rp281
(lp282
I3
aI52208010
ababag20
(g47
g22
Ntp283
Rp284
(lp285
(F3.712903054334683
F-2.4218014074453222
F-1.2319407747437718
F-3.2452821910949443
F-2.476201257292818
F5.785850546805101
tp286
a(F0.6266694118595487
F0.9416016962065098
F-1.2761263989983511
F-0.18212836303204816
F0.8438398356152226
F-0.18749786766362875
tp287
a(F0.6535261828386717
F-0.6151470271973113
F1.871187869800988
F0.053196644921352
F0.4118323422142475
F1.9361682613416595
tp288
a(tag20
(g54
g22
Ntp289
Rp290
(lp291
I3
aI72534684
ababag20
(g47
g22
Ntp292
Rp293
(lp294
(F3.7258141295113747
F-2.402733273772559
F-1.2575680050077278
F-3.248984076413866
F-2.458913031384955
F5.7824299075948025
tp295
a(F0.6370169290055101
F0.9248147787867619
F-1.2325555597477427
F-0.18104586070018786
F0.8479928378979631
F-0.1482822424854367
tp296
a(F0.3603104275014045
F-1.0261886961461837
F2.391050542900153
F0.05274880415804729
F-0.003775651858062528
F1.9019686750573717
tp297
a(tag20
(g54
g22
Ntp298
Rp299
(lp300
I3
aI92920984
ababag20
(g47
g22
Ntp301
Rp302
(lp303
(F3.7390399878083618
F-2.3838601399875547
F-1.2825046658951422
F-3.252710131797528
F-2.441409209550121
F5.779771713261997
tp304
a(F0.6445734782340626
F0.9042222802248787
F-1.184461666400596
F-0.18080670736666365
F0.847923588213501
F-0.11038349316113419
tp305
a(F0.37181397163787855
F-0.9694771749430291
F2.2697696180009377
F-0.029074653769870062
F-0.0029394471741844698
F1.7710479649079764
tp306
a(tag20
(g54
g22
Ntp307
Rp308
(lp309
I3
aI113563400
ababag20
(g47
g22
Ntp310
Rp311
(lp312
(F3.7525871569932616
F-2.3651793303395063
F-1.306758191154929
F-3.2564938753603614
F-2.4236949221578654
F5.777849772005867
tp313
a(F0.652482640834086
F0.8845342033807766
F-1.1382443802043354
F-0.18219090684642505
F0.847909825560117
F-0.07461324849802042
tp314
a(F0.38532368809659084
F-0.9157597981887899
F2.1557079966253285
F-0.10301285821288302
F0.0015951632049788279
F1.6542540742647642
tp315
a(tag20
(g54
g22
Ntp316
Rp317
(lp318
I3
aI134455525
ababag20
(g47
g22
Ntp319
Rp320
(lp321
(F3.7664620563263282
F-2.3466892256305316
F-1.3303348013478429
F-3.260367107837798
F-2.4057751352764947
F5.776640231293584
tp322
a(F0.6574993085460681
F0.861484385851411
F-1.0885232221414536
F-0.18415626258894885
F0.8438302136236164
F-0.04063786801546479
tp323
a(F0.0906795920154106
F-1.2575681041021884
F2.5353135390310038
F-0.08269793869466821
F-0.3836236242661951
F1.5541202803297325
tp324
a(tag20
(g54
g22
Ntp325
Rp326
(lp327
I3
aI155589178
ababag20
(g47
g22
Ntp328
Rp329
(lp330
(F3.780670961490972
F-2.3283892414829843
F-1.3532395808265243
F-3.2643600243678668
F-2.387654731735662
F5.776121417462065
tp331
a(F0.6596191506096932
F0.8352650014923211
F-1.035692496030732
F-0.18656200589410554
F0.8357980940593521
F-0.008563713186741559
tp332
a(F0.10565468408107219
F-1.1735625820492213
F2.363319114440033
F-0.13970567812649495
F-0.3611028154022015
F1.4201995387103288
tp333
a(tag20
(g54
g22
Ntp334
Rp335
(lp336
I3
aI177167925
ababag20
(g47
g22
Ntp337
Rp338
(lp339
(F3.795219965914057
F-2.3102798148079384
F-1.3754765467747547
F-3.268501317243123
F-2.3693385914716956
F5.776273682137812
tp340
a(F0.6588440406384595
F0.8063456237707511
F-0.9806688548439597
F-0.18923824005781215
F0.8240392549151039
F0.021221914007855926
tp341
a(F-0.17243840890187911
F-1.4435094799322659
F2.619266560841161
F-0.1032435846548264
F-0.7001738596188302
F1.2804471056542566
tp342
a(tag20
(g54
g22
Ntp343
Rp344
(lp345
I3
aI199186159
ababag20
(g47
g22
Ntp346
Rp347
(lp348
(F3.810114938293323
F-2.292362396706331
F-1.397048712497658
F-3.2728182687059415
F-2.3508316715888506
F5.777079255450223
tp349
a(F0.6547532747335169
F0.7744013606456345
F-0.9231893100495054
F-0.19189870862346822
F0.8081523001312203
F0.048642990324634955
tp350
a(F-0.18803055339421673
F-1.3741786961869764
F2.4514352481722743
F-0.13093073792083806
F-0.7006390793724067
F1.1394745750846171
tp351
a(tag20
(g54
g22
Ntp352
Rp353
(lp354
I3
aI221860202
ababag20
(g47
g22
Ntp355
Rp356
(lp357
(F3.825361476163409
F-2.2746394502724723
F-1.4179581466898243
F-3.2773368331665
F-2.3321390865604728
F5.778522106092043
tp358
a(F0.6820976740295631
F0.77891443651851
F-0.9091989903601638
F-0.20489997750536193
F0.8304019729990353
F0.07798286659698789
tp359
a(F2.6061744905422723
F1.795438007490548
F-1.2562540018523491
F-1.0151745338762839
F2.6772749819841395
F1.4330117548627557
tp360
a(tag20
(g54
g22
Ntp361
Rp362
(lp363
I3
aI245223350
ababag20
(g47
g22
Ntp364
Rp365
(lp366
(F3.840964855361704
F-2.2571144519733584
F-1.4382060299866235
F-3.282081708697558
F-2.3132661888969843
F5.780587807851258
tp367
a(F0.7397089853574172
F0.8161692260857766
F-0.9327033696722389
F-0.2283021573476
F0.8883851525381649
F0.11144312181633187
tp368
a(F2.6313495468685653
F1.5848204478777057
F-0.868951412471959
F-1.1149655548023407
F2.59079060283521
F1.6137576368491422
tp369
a(tag20
(g54
g22
Ntp370
Rp371
(lp372
I3
aI267150337
ababag20
(g47
g22
Ntp373
Rp374
(lp375
(F3.8569299752896122
F-2.239791895391742
F-1.4577927098345773
F-3.287076397885569
F-2.2942186505389843
F5.783263412150228
tp376
a(F0.7863231120663013
F0.8382652941647029
F-0.9373204845164163
F-0.24988474903329622
F0.9315279712778862
F0.1450109459675164
tp377
a(F1.8022654633762103
F0.5033704135554665
F0.45401850748632994
F-0.9419366617376264
F1.5064716624727992
F1.5901739112003677
tp378
a(tag20
(g54
g22
Ntp379
Rp380
(lp381
I3
aI287943349
ababag20
(g47
g22
Ntp382
Rp383
(lp384
(F3.873261299907659
F-2.222677296199514
F-1.476717754498991
F-3.2923432583215533
F-2.2750025451630083
F5.786537326043335
tp385
a(F0.8041754638463328
F0.8282534644430325
F-0.9056312342593386
F-0.26353367106715564
F0.9396455068558518
F0.17357005431452965
tp386
a(F-0.06416845815982618
F-1.478394475909186
F2.6317345875543854
F-0.38699599750755864
F-0.7162776027972529
F1.1905645014056445
tp387
a(tag20
(g54
g22
Ntp388
Rp389
(lp390
I3
aI308234882
ababag20
(g47
g22
Ntp391
Rp392
(lp393
(F3.8899627944633615
F-2.205777197260254
F-1.494980006872425
F-3.297903543160497
F-2.25562443145218
F5.790399194941174
tp394
a(F0.8033119851327823
F0.7987523033158903
F-0.8531455891313962
F-0.27188998338030257
F0.9255017437358164
F0.1973274567244728
tp395
a(F-0.019456077824553174
F-1.3622119615994617
F2.4220357562330688
F-0.41688363769375003
F-0.6457691423134835
F1.0969873366206275
tp396
a(tag20
(g54
g22
Ntp397
Rp398
(lp399
I3
aI329020385
ababag20
(g47
g22
Ntp400
Rp401
(lp402
(F3.9070378580094918
F-2.1890991727870994
F-1.5125776386047873
F-3.3037774322956914
F-2.236091437346261
F5.794839789448914
tp403
a(F0.7992486790953071
F0.7670304737685223
F-0.7996689072279374
F-0.2795770536073974
F0.9078409418526618
F0.21862601757640304
tp404
a(F-0.35727945923730764
F-1.6112879641694862
F2.5940513436990873
F-0.30599750247056073
F-1.0066847483038972
F0.9043462194056889
tp405
a(tag20
(g54
g22
Ntp406
Rp407
(lp408
I3
aI350281629
ababag20
(g47
g22
Ntp409
Rp410
(lp411
(F3.9244892518661616
F-2.1726518304498637
F-1.5295082050064037
F-3.3099840547387083
F-2.216411345050591
F5.799850895423423
tp412
a(F0.7875537277108539
F0.7291902152247477
F-0.741371557247811
F-0.2848235668828845
F0.8818313328080145
F0.2360823900866481
tp413
a(F-0.6995379673792451
F-1.824472234047748
F2.703141536957534
F-0.1733269737280647
F-1.3512811346068632
F0.6864006752309808
tp414
a(tag20
(g54
g22
Ntp415
Rp416
(lp417
I3
aI372222307
ababag20
(g47
g22
Ntp418
Rp419
(lp420
(F3.942319024256012
F-2.1564448103473324
F-1.5457687010406453
F-3.3165415029168326
F-2.196592676594521
F5.805425206644672
tp421
a(F0.7682839940408652
F0.685972192318558
F-0.6794706242311734
F-0.2873039041110167
F0.8479014530764717
F0.24929949267733836
tp422
a(F-0.9745958199623881
F-1.9418017205518998
F2.6953334194593577
F-0.04592245233888516
F-1.6019079626150672
F0.4712146661230549
tp423
a(tag20
(g54
g22
Ntp424
Rp425
(lp426
I3
aI395089270
ababag20
(g47
g22
Ntp427
Rp428
(lp429
(F3.96052843146688
F-2.140488779710787
F-1.561355618681477
F-3.3234668396025975
F-2.176644779463672
F5.811556219244815
tp430
a(F0.7881707100979776
F0.6775066659023481
F-0.6525556487235458
F-0.30503098210658325
F0.8568653472587787
F0.27469547949133405
tp431
a(F2.6801797413912944
F1.2249748261999498
F-0.40267435222303005
F-1.4708620888443105
F2.375244130953376
F1.700159883293949
tp432
a(tag20
(g54
g22
Ntp433
Rp434
(lp435
I3
aI419148723
ababag20
(g47
g22
Ntp436
Rp437
(lp438
(F3.9791178560134095
F-2.124795422200717
F-1.5762650058197896
F-3.3307760982476027
F-2.1565779117261634
F5.818238127176177
tp439
a(F0.8534411604899452
F0.706549129109075
F-0.6614227528744536
F-0.3414096104018297
F0.9142094164108938
F0.3163403181546135
tp440
a(F3.0821684991630365
F1.3370411185043882
F-0.3778017470135229
F-1.7421925789010142
F2.6860788796948203
F1.9770228596206472
tp441
a(tag20
(g54
g22
Ntp442
Rp443
(lp444
I3
aI441832834
ababag20
(g47
g22
Ntp445
Rp446
(lp447
(F3.99808672240732
F-2.1093774206518336
F-1.590492526824302
F-3.33848427753605
F-2.136403325902597
F5.825465718013028
tp448
a(F0.9054071457651351
F0.7216937997956141
F-0.6559499681260486
F-0.3741100495373799
F0.9556441656493153
F0.35445619824522073
tp449
a(F1.7025353180401666
F0.03941968523254395
F0.9104609022016903
F-1.276738709569735
F1.1196173459963357
F1.5440646691580122
tp450
a(tag20
(g54
g22
Ntp451
Rp452
(lp453
I3
aI463208822
ababag20
(g47
g22
Ntp454
Rp455
(lp456
(F4.017433411297001
F-2.094248432129132
F-1.60403352478331
F-3.346605331008374
F-2.1161333506535853
F5.833234268419693
tp457
a(F0.9143254285582183
F0.7012975245666946
F-0.6180549441042857
F-0.38995944215542155
F0.9508210254993885
F0.3760010133948092
tp458
a(F-0.8514793258806482
F-1.9480192966686776
F2.6450489092535863
F-0.21894062373822137
F-1.560281727269735
F0.4872425063864116
tp459
a(tag20
(g54
g22
Ntp460
Rp461
(lp462
I3
aI484159881
ababag20
(g47
g22
Ntp463
Rp464
(lp465
(F4.037155172907071
F-2.0794230541659178
F-1.6168830853968643
F-3.3551521525805685
F-2.095781469129232
F5.841539438625479
tp466
a(F0.8875670480983582
F0.6542613672243468
F-0.5579751467637337
F-0.3906360361597724
F0.9090897643994441
F0.3819149512472218
tp467
a(F-1.5739006611974666
F-2.336922077831603
F2.8356538567434044
F0.1481725606900722
F-2.233352984848636
F0.06309982015050082
tp468
a(tag20
(g54
g22
Ntp469
Rp470
(lp471
I3
aI505946396
ababag20
(g47
g22
Ntp472
Rp473
(lp474
(F4.0572480408688785
F-2.0649167811357714
F-1.6290361023658777
F-3.364136558877836
F-2.0753623927116034
F5.850377165400504
tp475
a(F0.846089638676026
F0.5987952000870849
F-0.49320128321293255
F-0.3840456826559528
F0.8533833721372815
F0.37953767452126813
tp476
a(F-1.9856070879453427
F-2.4380476885587044
F2.747469774671067
F0.4108264025106491
F-2.5549653159865655
F-0.2572260029020009
tp477
a(tag20
(g54
g22
Ntp478
Rp479
(lp480
I3
aI529044137
ababag20
(g47
g22
Ntp481
Rp482
(lp483
(F4.077706747724774
F-2.0507459497553304
F-1.6404873440870638
F-3.373569269208864
F-2.0548921285991146
F5.859743553008021
tp484
a(F0.8249794888521217
F0.559472075903851
F-0.4437088018458528
F-0.38617642691832677
F0.8189735162989233
F0.38485541708986704
tp485
a(F0.2163724795709998
F-0.8058513446875064
F1.32215168146034
F-0.5643075918515974
F-0.3009286396254373
F0.6718072988731288
tp486
a(tag20
(g54
g22
Ntp487
Rp488
(lp489
I3
aI553924809
ababag20
(g47
g22
Ntp490
Rp491
(lp492
(F4.098524643550513
F-2.036927672872526
F-1.6512315213204671
F-3.3834598841092327
F-2.03438803960044
F5.86963476181141
tp493
a(F0.7998417492680348
F0.5199077563112022
F-0.3965077778052917
F-0.38546839928442034
F0.7817544016939546
F0.3864858799819547
tp494
a(F-2.1185153597677107
F-2.2433286449553878
F2.3330129458202427
F0.5909099060208033
F-2.5454188036857097
F-0.5152917206084987
tp495
a(tag20
(g54
g22
Ntp496
Rp497
(lp498
I3
aI579076737
ababag20
(g47
g22
Ntp499
Rp500
(lp501
(F4.11969361932536
F-2.023479760817634
F-1.6612633554514156
F-3.393816863273464
F-2.013868894253285
F5.88004689424805
tp502
a(F0.7389328656337892
F0.4594804156060507
F-0.33574726937951493
F-0.36655565148398384
F0.7107347550912014
F0.36917490342365855
tp503
a(F-2.284471614195305
F-2.137861131494686
F2.0794396133442308
F0.7701062647049652
F-2.5953715419772423
F-0.7281056870563125
tp504
a(tag20
(g54
g22
Ntp505
Rp506
(lp507
I3
aI606497776
ababag20
(g47
g22
Ntp508
Rp509
(lp510
(F4.14120403682781
F-2.0104206298191407
F-1.6705776468463587
F-3.404647503732503
F-1.9933549053004203
F5.890975878079891
tp511
a(F0.6625900642340268
F0.39364058719872164
F-0.27463793987965335
F-0.33806351760256015
F0.6270514746041158
F0.3415351697449672
tp512
a(F-2.633300823306861
F-2.123351206265188
F1.8869688421106574
F1.0554272446638457
F-2.8061408457652903
F-1.0405505614199684
tp513
a(tag20
(g54
g22
Ntp514
Rp515
(lp516
I3
aI636971481
ababag20
(g47
g22
Ntp517
Rp518
(lp519
(F4.163044666976862
F-1.9977691972169267
F-1.6791693427325778
F-3.4159579190552005
F-1.9728677544110556
F5.9024173469610055
tp520
a(F0.666119404939024
F0.37603068989185284
F-0.24832813501760528
F-0.35011094816918453
F0.6192463699701027
F0.3544476083527546
tp521
a(F2.822008481552035
F1.0422413625245022
F-0.2835047374469682
F-1.7721146181726102
F2.3099171650078962
F1.8095250847468407
tp522
a(tag20
(g54
g22
Ntp523
Rp524
(lp525
I3
aI672237438
ababag20
(g47
g22
Ntp526
Rp527
(lp528
(F4.1852026386292325
F-1.9855447635264976
F-1.6870336039081368
F-3.4277530203870312
F-1.9524306010503325
F5.9143665186059176
tp529
a(F0.7541583558301436
F0.40520058822977856
F-0.25280064184756645
F-0.4072459805172376
F0.6893231589785245
F0.4127004981718145
tp530
a(F2.780327001164745
F0.8012747229874948
F0.01550006397738618
F-1.8706827949406228
F2.1418582117897382
F1.9042198886664499
tp531
a(tag20
(g54
g22
Ntp532
Rp533
(lp534
I3
aI703317727
ababag20
(g47
g22
Ntp535
Rp536
(lp537
(F4.207663399926369
F-1.9737668816914622
F-1.694165869573588
F-3.4400364999507484
F-1.9320680732756303
F5.926818070961395
tp538
a(F0.8368371750941939
F0.42691622327029516
F-0.2497627390433953
F-0.46410527518394423
F0.7517029927674004
F0.4704331468767068
tp539
a(F3.062322411162286
F0.7265041241787701
F0.20747139993450409
F-2.1513429853344253
F2.262101955615369
F2.1791242115347087
tp540
a(tag20
(g54
g22
Ntp541
Rp542
(lp543
I3
aI731556408
ababag20
(g47
g22
Ntp544
Rp545
(lp546
(F4.230410694270652
F-1.9624552142866711
F-1.7005619194405972
F-3.4528108177187127
F-1.9118062384391052
F5.9397660171171225
tp547
a(F0.9101341157232758
F0.43991227107226466
F-0.23922085313986446
F-0.5180918145053338
F0.8031715070994286
F0.5249469242154864
tp548
a(F2.5311110869078433
F0.25137428480390683
F0.6146132854043556
F-1.9763533884198177
F1.657111852528858
F1.9883717620010848
tp549
a(tag20
(g54
g22
Ntp550
Rp551
(lp552
I3
aI757456097
ababag20
(g47
g22
Ntp553
Rp554
(lp555
(F4.253426552964363
F-1.9516293798153745
F-1.706217932244935
F-3.4660771918488016
F-1.8916725518776487
F5.953203579902432
tp556
a(F0.9709592622217422
F0.44333064485619067
F-0.2213170922377104
F-0.56715307781985
F0.8413192034114121
F0.5741180387888534
tp557
a(F2.4298277687287366
F0.021405872587413003
F0.852829148594896
F-2.0287165822172404
F1.4503926288050342
F2.0252466052299076
tp558
a(tag20
(g54
g22
Ntp559
Rp560
(lp561
I3
aI781889489
ababag20
(g47
g22
Ntp562
Rp563
(lp564
(F4.276691306429109
F-1.941308789645419
F-1.7111305397767858
F-3.4798355933660177
F-1.8716957818621769
F5.967123067353201
tp565
a(F0.9949845818852683
F0.4282155304891711
F-0.1933643551452594
F-0.5959230879982822
F0.8463089676356572
F0.6024092854566946
tp566
a(F-0.42133559441461416
F-1.3082549690660843
F1.513590939049571
F-0.3896355396441681
F-1.0474333196364298
F0.35240742240796
tp567
a(tag20
(g54
g22
Ntp568
Rp569
(lp570
I3
aI805155760
ababag20
(g47
g22
Ntp571
Rp572
(lp573
(F4.300183615695338
F-1.9315124776036794
F-1.7152968754665372
F-3.4940847456407917
F-1.8519059095376194
F5.981515750587471
tp574
a(F0.9613458041799416
F0.38852211687971605
F-0.15504807829132183
F-0.59026558245732
F0.8021546240502714
F0.5956241366846401
tp575
a(F-2.335410094130288
F-1.9800287439890143
F1.671536081854848
F0.8332048550972736
F-2.592626386528798
F-0.8893957216594508
tp576
a(tag20
(g54
g22
Ntp577
Rp578
(lp579
I3
aI828884541
ababag20
(g47
g22
Ntp580
Rp581
(lp582
(F4.323880525583632
F-1.9222589246215511
F-1.7187146166231482
F-3.5088221290566675
F-1.8323340029143602
F5.996371745829622
tp583
a(F0.8969752368439392
F0.33888756007657006
F-0.11536667688669369
F-0.5645571847530804
F0.7336442857373153
F0.5684477439000235
tp584
a(F-2.686377124152665
F-1.9056208579234828
F1.4415856400029332
F1.16492288609042
F-2.760164029391622
F-1.223476075828938
tp585
a(tag20
(g54
g22
Ntp586
Rp587
(lp588
I3
aI854292493
ababag20
(g47
g22
Ntp589
Rp590
(lp591
(F4.347757540610439
F-1.9135658812436647
F-1.7213820194165117
F-3.524043991307945
F-1.8130120645908836
F6.011679902636994
tp592
a(F0.819405073985239
F0.28807755780423916
F-0.0791037828850208
F-0.5285470223902188
F0.6564931779465005
F0.5308544715916133
tp593
a(F-2.857805401217897
F-1.739623475137669
F1.1676603445139713
F1.401128826228781
F-2.7623500585302283
F-1.456075122396921
tp594
a(tag20
(g54
g22
Ntp595
Rp596
(lp597
I3
aI882014775
ababag20
(g47
g22
Ntp598
Rp599
(lp600
(F4.371788724201574
F-1.9054501911397117
F-1.7232979457699016
F-3.539745363717172
F-1.793972853487407
F6.027427700598821
tp601
a(F0.7452218476079056
F0.24228841801966686
F-0.048168802739793584
F-0.49267016227223354
F0.5842707409791941
F0.493402551021648
tp602
a(F-1.9937229578673494
F-1.2526372417894134
F0.8531752116592995
F0.9470009545102206
F-1.9590493401462066
F-0.9945173134596025
tp603
a(tag20
(g54
g22
Ntp604
Rp605
(lp606
I3
aI912922379
ababag20
(g47
g22
Ntp607
Rp608
(lp609
(F4.395946821266356
F-1.8979276190343675
F-1.724461881412284
F-3.5559200839682292
F-1.7752496815903063
F6.043601156979501
tp610
a(F0.6604629874786756
F0.19766139830287513
F-0.02233863273390071
F-0.447217964723284
F0.5065374987785543
F0.44648306459791887
tp611
a(F-2.8442792771482384
F-1.3193737846828308
F0.6511187536845945
F1.6325134066447895
F-2.4938414077007254
F-1.6703332774437953
tp612
a(tag20
(g54
g22
Ntp613
Rp614
(lp615
I3
aI946808181
ababag20
(g47
g22
Ntp616
Rp617
(lp618
(F4.420203403596032
F-1.8910126866541725
F-1.724873944455844
F-3.5725608256618178
F-1.756876187479054
F6.060184747918429
tp619
a(F0.5417227548836351
F0.1481724983508861
F-0.001850766212168176
F-0.3756466913677746
F0.4060777341004076
F0.3737410098514739
tp620
a(F-2.9113436771349877
F-1.1048832860055195
F0.37240378187647966
F1.8211791570029956
F-2.392276413437388
F-1.8419646450079576
tp621
a(tag20
(g54
g22
Ntp622
Rp623
(lp624
I3
aI986703931
ababag20
(g47
g22
Ntp625
Rp626
(lp627
(F4.444529036921798
F-1.8847185203644876
F-1.7245348840104748
F-3.5896591351113543
F-1.7388860892013585
F6.077161345859168
tp628
a(F0.5122224997389084
F0.12529812977372629
F0.015580507379045547
F-0.36477789918059483
F0.3737952016767818
F0.36138576781406617
tp629
a(F1.5396599316891617
F0.09537724094148012
F0.3748466735629994
F-1.2806783537656297
F0.9284712844919755
F1.2382570416042273
tp630
a(tag20
(g54
g22
Ntp631
Rp632
(lp633
I4
aI37867712
ababag20
(g47
g22
Ntp634
Rp635
(lp636
(F4.468893467821966
F-1.8790567141228727
F-1.723446068517772
F-3.607205475809825
F-1.721312919852672
F6.094512175849977
tp637
a(F0.6085371600072207
F0.1325834528043199
F0.03743879927022333
F-0.4441628736234888
F0.4326696103900737
F0.4381337356008479
tp638
a(F2.945220533745935
F0.24769125256776076
F0.6383653232916283
F-2.413757679950167
F1.8153105931529379
F2.3334355489450425
tp639
a(tag20
(g54
g22
Ntp640
Rp641
(lp642
I4
aI82247478
ababag20
(g47
g22
Ntp643
Rp644
(lp645
(F4.493265828018134
F-1.8740372112167938
F-1.7216094636567105
F-3.625189281048072
F-1.7041897500302126
F6.112216793252863
tp646
a(F0.7162148637632051
F0.13737023303735152
F0.06569614720379803
F-0.5354340543194535
F0.49587447937866785
F0.5257461496630293
tp647
a(F2.8177472072148504
F-0.012899157573354594
F0.8986389816141085
F-2.486282176593619
F1.551591171315984
F2.36716504256492
tp648
a(tag20
(g54
g22
Ntp649
Rp650
(lp651
I4
aI118728914
ababag20
(g47
g22
Ntp652
Rp653
(lp654
(F4.517614853029148
F-1.8696682079031064
F-1.719027599922199
F-3.643599015059736
F-1.687548901880485
F6.130253085082131
tp655
a(F0.8045320491711219
F0.13311014357447284
F0.09831323712242565
F-0.6161965077379061
F0.5415628080330688
F0.602007355241817
tp656
a(F2.6513061555701025
F-0.26657687582623046
F1.1392664133828054
F-2.52646220892206
F1.2657026533336917
F2.36371899201327
tp657
a(tag20
(g54
g22
Ntp658
Rp659
(lp660
I4
aI150584603
ababag20
(g47
g22
Ntp661
Rp662
(lp663
(F4.541909111587109
F-1.865956081677338
F-1.7157035301299242
F-3.6624222431550733
F-1.6714216601822074
F6.148597296905889
tp664
a(F0.8616576592833364
F0.11989661794778363
F0.13151525087102103
F-0.6760877522829458
F0.5631671069524036
F0.6569322048424688
tp665
a(F1.2038070597027433
F-0.6516255434115302
F1.1320595831371763
F-1.534636052354723
F0.17216444132381314
F1.357045732534539
tp666
a(tag20
(g54
g22
Ntp667
Rp668
(lp669
I4
aI179345074
ababag20
(g47
g22
Ntp670
Rp671
(lp672
(F4.566117241813663
F-1.8629053463021041
F-1.7116407773527458
F-3.6816457111418193
F-1.6558379861884964
F6.167224086687902
tp673
a(F0.8409745290691298
F0.09515538924212
F0.1537158622568336
F-0.6758022204941423
F0.5330884813522871
F0.6528495889001589
tp674
a(F-2.6159140498179347
F-1.0821745977820023
F0.43538062900786656
F1.5217373399268184
F-2.2594167543660024
F-1.6118922409775909
tp675
a(tag20
(g54
g22
Ntp676
Rp677
(lp678
I4
aI206897982
ababag20
(g47
g22
Ntp679
Rp680
(lp681
(F4.590208189837445
F-1.8605186350761795
F-1.7068432739757737
F-3.7012554342488615
F-1.6408262402073674
F6.186106606362851
tp682
a(F0.7546059645714005
F0.06517586773608988
F0.16147433499799968
F-0.6214897801210616
F0.46275169086901113
F0.596520835488562
tp683
a(F-3.0504686099041063
F-0.9020440578771961
F0.0935952577048195
F2.02925765728929
F-2.368028841708041
F-2.074284848648647
tp684
a(tag20
(g54
g22
Ntp685
Rp686
(lp687
I4
aI236886324
ababag20
(g47
g22
Ntp688
Rp689
(lp690
(F4.614151446365484
F-1.8587967130917278
F-1.7013152927308595
F-3.721236795612145
F-1.626412918912348
F6.2052166112389
tp691
a(F0.6479930642054026
F0.038519645948178166
F0.15912893667870598
F-0.5470338318413004
F0.3836713904223334
F0.5214035106242976
tp692
a(F-3.1202315155791287
F-0.6601198854453746
F-0.2070690540941391
F2.2661975554190437
F-2.223700512236152
F-2.2630689696460267
tp693
a(tag20
(g54
g22
Ntp694
Rp695
(lp696
I4
aI270806620
ababag20
(g47
g22
Ntp697
Rp698
(lp699
(F4.637917276706932
F-1.8577385184502304
F-1.695061370713341
F-3.7415746541813255
F-1.6126224131697624
F6.224524596551113
tp700
a(F0.5228334532170056
F0.01697872598669459
F0.1450796527636756
F-0.45242221923639453
F0.2983043974030119
F0.42800119226465333
tp701
a(F-2.9257293040355608
F-0.40425218730132884
F-0.4438955506753182
F2.2862215186398456
F-1.9185136750019793
F-2.2361611670444814
tp702
a(tag20
(g54
g22
Ntp703
Rp704
(lp705
I4
aI311079635
ababag20
(g47
g22
Ntp706
Rp707
(lp708
(F4.661476939901939
F-1.857341231612363
F-1.6880862274977528
F-3.7622534616420227
F-1.5994767916976607
F6.243999959660657
tp709
a(F0.285707807141839
F0.0031973524335946707
F0.0865386410946036
F-0.2520886516812339
F0.15809045581450362
F0.23699479993266886
tp710
a(F-2.6848716276728672
F-0.07089275517348305
F-0.7640469960127498
F2.3357491994211736
F-1.5190493600329074
F-2.2065032750157934
tp711
a(tag20
(g54
g22
Ntp712
Rp713
(lp714
I4
aI362796722
ababag20
(g47
g22
Ntp715
Rp716
(lp717
(F4.684802892904796
F-1.8576003713061398
F-1.6803946785197006
F-3.783257387689999
F-1.5869956152451168
F6.2636111855877825
tp718
a(F-0.7086612338189604
F1.3395217121286365
F0.8209713857392799
F0.16636296481781312
F0.09717058267277853
F-1.9826875737505567
tp719
a(F-1.2396697474014
F2.0158932317541676
F1.1768799749473382
F0.40698803958460306
F0.05288226650077382
F-3.127413422642508
tp720
a(tag20
(g54
g22
Ntp721
Rp722
(lp723
I4
aI564113873
ababag20
(g47
g22
Ntp724
Rp725
(lp726
(F0.9144470656013244
F4.733758681143579
F2.2634486142942265
F-2.708461192362131
F-1.2615417082826668
F-3.727434471817122
tp727
a(F-0.7043810256427195
F1.3235493102092606
F0.7823582846495022
F0.268342329792718
F0.02108123189181483
F-1.9814404217893309
tp728
a(F1.248570513134901
F-2.043943696669854
F-1.2373778104219684
F-0.254164944846506
F-0.1676128476930293
F3.1354800406482397
tp729
a(tag20
(g54
g22
Ntp730
Rp731
(lp732
I7
aI23272807
ababag20
(g47
g22
Ntp733
Rp734
(lp735
(F0.9388426917846857
F4.727243091025776
F2.2557981986018114
F-2.688928120332013
F-1.2792229424550883
F-3.7078459771767456
tp736
a(F0.29691580953144125
F-0.07235741460243728
F-0.09960393972733068
F0.24175592673303312
F-0.21155316363915597
F0.23962188442428317
tp737
a(F2.780011056893503
F-0.6305863344009677
F-0.9764339342678747
F2.290713500457935
F-1.9561607615947076
F2.251763089963805
tp738
a(tag20
(g54
g22
Ntp739
Rp740
(lp741
I7
aI219336397
ababag20
(g47
g22
Ntp742
Rp743
(lp744
(F0.9633083362904927
F4.721432540395555
F2.2474491140660677
F-2.6689197702233582
F-1.2965752039555518
F-3.6880748154782297
tp745
a(F0.5356919332038517
F-0.11839038711302297
F-0.19112505721759793
F0.4433713573515431
F-0.37520431469115667
F0.43456253033881825
tp746
a(F2.856397493378549
F-0.29765528277341907
F-1.3331199094217077
F2.563304231501696
F-1.82185287342303
F2.3798195356394243
tp747
a(tag20
(g54
g22
Ntp748
Rp749
(lp750
I7
aI271456997
ababag20
(g47
g22
Ntp751
Rp752
(lp753
(F0.9878125156327484
F4.716332159655707
F2.2384098429487373
F-2.6484504640420585
F-1.3135692893854933
F-3.668137410395177
tp754
a(F0.570296076689726
F-0.11085380741554979
F-0.21783233074631436
F0.48123243501013946
F-0.3912055000265132
F0.4655863159693364
tp755
a(F-1.4699787666448234
F0.670151915704056
F0.19625420844652167
F-1.0032973602471706
F1.219191480559423
F-1.1229632434750918
tp756
a(tag20
(g54
g22
Ntp757
Rp758
(lp759
I7
aI312163009
ababag20
(g47
g22
Ntp760
Rp761
(lp762
(F1.012323839040753
F4.711944725847104
F2.2286891745778377
F-2.6275345193090507
F-1.3301765032703325
F-3.6480508691585456
tp763
a(F0.5984943768869108
F-0.09759361835223263
F-0.24651650441513023
F0.5167922764426653
F-0.4001428616074538
F0.49248306367347483
tp764
a(F2.8962585717201375
F-0.05726457671741318
F-1.5919401135622886
F2.7658091452627627
F-1.7032376835540801
F2.4715541783233084
tp765
a(tag20
(g54
g22
Ntp766
Rp767
(lp768
I7
aI357671255
ababag20
(g47
g22
Ntp769
Rp770
(lp771
(F1.036811302104309
F4.70827081795563
F2.2182961039219795
F-2.606186178255574
F-1.3463691001531812
F-3.6278329603712223
tp772
a(F0.6375725304627365
F-0.08677193171622674
F-0.27926345905559957
F0.5617154039164554
F-0.41648599480887677
F0.5283991095187079
tp773
a(F-1.0833910157856816
F0.625225025488201
F0.00870719406171606
F-0.6385406351743164
F0.9828148334075086
F-0.790774387758336
tp774
a(tag20
(g54
g22
Ntp775
Rp776
(lp777
I7
aI394864993
ababag20
(g47
g22
Ntp778
Rp779
(lp780
(F1.0612445068327039
F4.70530896462185
F2.207239752205188
F-2.5844196478099595
F-1.3621205060384498
F-3.607502051994844
tp781
a(F0.5509168368986642
F-0.05982575185915722
F-0.25619040723712655
F0.4955568294344193
F-0.3510536387760718
F0.4600509657977927
tp782
a(F-2.9328606116725657
F0.6654055399420564
F1.0201574743542994
F-2.4004193665746936
F2.073650663600504
F-2.3677450380303195
tp783
a(tag20
(g54
g22
Ntp784
Rp785
(lp786
I7
aI434479826
ababag20
(g47
g22
Ntp787
Rp788
(lp789
(F1.0855938674505372
F4.703055807481629
F2.195529291344121
F-2.562249137803386
F-1.3774055234171927
F-3.587077044215153
tp790
a(F0.4633283399477811
F-0.03655870273226802
F-0.22919892256137633
F0.4263513992200238
F-0.2870276450523665
F0.39019436245432065
tp791
a(F-0.8273888121609283
F0.3169490097550886
F0.15551932882815092
F-0.582706177939042
F0.6648345358266892
F-0.6354192247317841
tp792
a(tag20
(g54
g22
Ntp793
Rp794
(lp795
I7
aI484678010
ababag20
(g47
g22
Ntp796
Rp797
(lp798
(F1.1098307988518712
F4.7015062751514325
F2.1831738725237195
F-2.5396888937472024
F-1.3922005166139308
F-3.566577297495817
tp799
a(F0.5119051453179934
F-0.024415006710672753
F-0.2695004953144404
F0.48260002797932716
F-0.3073299245771798
F0.4350658388479273
tp800
a(F2.921379435903956
F0.15859636210075545
F-1.844207911198455
F2.9730568768131693
F-1.5691948546989092
F2.557893477185642
tp801
a(tag20
(g54
g22
Ntp802
Rp803
(lp804
I7
aI539563346
ababag20
(g47
g22
Ntp805
Rp806
(lp807
(F1.1339278852133623
F4.700653763246491
F2.1701825589907875
F-2.5167532209617876
F-1.4064835747031272
F-3.546022556193083
tp808
a(F0.637088966494471
F-0.01266192214188982
F-0.3538277421903362
F0.6138863236571623
F-0.37135252047086065
F0.5459866196635383
tp809
a(F2.888962358732866
F0.417828338659585
F-2.102854701435982
F3.144773203501795
F-1.382308366021821
F2.5986222931654086
tp810
a(tag20
(g54
g22
Ntp811
Rp812
(lp813
I7
aI580951759
ababag20
(g47
g22
Ntp814
Rp815
(lp816
(F1.157859026929691
F4.700490316347488
F2.156564262975926
F-2.493456497637648
F-1.4202346499989245
F-3.5254328682049847
tp817
a(F0.7281568998971955
F0.00595152744102821
F-0.42606541051267066
F0.7174199423230487
F-0.41131458307994534
F0.6293621552208999
tp818
a(F2.205657321361371
F0.6506306667488327
F-1.9680414268545807
F2.66918686854899
F-0.8352625603374683
F2.072948162742333
tp819
a(tag20
(g54
g22
Ntp820
Rp821
(lp822
I7
aI615536345
ababag20
(g47
g22
Ntp823
Rp824
(lp825
(F1.1815995646602495
F4.7010068084152685
F2.1423276864645513
F-2.469813174978203
F-1.433435670683612
F-3.5048285012027867
tp826
a(F0.7960199790191816
F0.02918204555413947
F-0.4903340221771434
F0.8023459315766412
F-0.4347633079621088
F0.6940263643495074
tp827
a(F2.1293595557843013
F0.8441192919631668
F-2.149873066973136
F2.7652170937332174
F-0.6550414617065946
F2.0607047027525303
tp828
a(tag20
(g54
g22
Ntp829
Rp830
(lp831
I7
aI646595954
ababag20
(g47
g22
Ntp832
Rp833
(lp834
(F1.2051263799310616
F4.7021931188016906
F2.127481265421755
F-2.445837763418497
F-1.4460706269060566
F-3.4842298561017233
tp835
a(F0.8531455891313957
F0.05566950250412034
F-0.5525199740931939
F0.8799232868429865
F-0.4496216216182486
F0.7503530812074765
tp836
a(F1.8538193620471575
F1.0146235234322956
F-2.2000702112620405
F2.6544697358487337
F-0.3725978525108957
F1.8699898983851946
tp837
a(tag20
(g54
g22
Ntp838
Rp839
(lp840
I7
aI675020764
ababag20
(g47
g22
Ntp841
Rp842
(lp843
(F1.2284179723197435
F4.704038301640711
F2.1120331169592315
F-2.42154480454881
F-1.4581256302775896
F-3.463657378512098
tp844
a(F0.9010141194151609
F0.08475699628815557
F-0.6128929374076156
F0.9511559551263853
F-0.4571237003921914
F0.7994093903102051
tp845
a(F1.741959938961222
F1.177925699033777
F-2.344342875470277
F2.7034139356922915
F-0.18539536144661187
F1.8170288620976562
tp846
a(tag20
(g54
g22
Ntp847
Rp848
(lp849
I7
aI701530499
ababag20
(g47
g22
Ntp850
Rp851
(lp852
(F1.2514545137806947
F4.706530747017616
F2.095990988852022
F-2.3969488289911656
F-1.4695889472598822
F-3.443131468991344
tp853
a(F0.9421703065658547
F0.11596792423646426
F-0.6725035552910935
F1.0181960027114785
F-0.45901622051920504
F0.8432148798954799
tp854
a(F1.5418455406427545
F1.3206573095097296
F-2.4222846675469976
F2.65341196967046
F0.0404995695058849
F1.6803109148919204
tp855
a(tag20
(g54
g22
Ntp856
Rp857
(lp858
I7
aI726477400
ababag20
(g47
g22
Ntp859
Rp860
(lp861
(F1.2742178811439342
F4.70965833288431
F2.0793622107716145
F-2.372064301090665
F-1.480451007531775
F-3.422672392999385
tp862
a(F0.9754760270661771
F0.1486171722746122
F-0.7300212515184301
F1.0793867823581746
F-0.4551072348317312
F0.8805496976041591
tp863
a(F1.2553251045466358
F1.4306211245279923
F-2.419966351187769
F2.494363049629297
F0.2945987608755416
F1.4575698664695178
tp864
a(tag20
(g54
g22
Ntp865
Rp866
(lp867
I7
aI750166597
ababag20
(g47
g22
Ntp868
Rp869
(lp870
(F1.2966916681804546
F4.713408567180961
F2.062153646558191
F-2.346905551648155
F-1.4907043887746851
F-3.4023001914979387
tp871
a(F0.9999842556549408
F0.18191784043291953
F-0.784073480220262
F1.1331363842976347
F-0.44540701437738195
F0.910327384154761
tp872
a(F0.8913346432758935
F1.4968674152913255
F-2.328000705562488
F2.2235984810098253
F0.5629084995438434
F1.15327146332649
tp873
a(tag20
(g54
g22
Ntp874
Rp875
(lp876
I7
aI772866603
ababag20
(g47
g22
Ntp877
Rp878
(lp879
(F1.3188611789469886
F4.717768720056357
F2.044371646859235
F-2.3214867003585042
F-1.500343779796575
F-3.3820345931844864
tp880
a(F1.020083939193605
F0.21616900470754993
F-0.8375817878616965
F1.1839765773205038
F-0.43223835875123395
F0.9363477135855893
tp881
a(F0.9406188789217556
F1.625660025963012
F-2.550476184396184
F2.411217235429553
F0.6380542838134171
F1.2183311974412667
tp882
a(tag20
(g54
g22
Ntp883
Rp884
(lp885
I7
aI794818046
ababag20
(g47
g22
Ntp886
Rp887
(lp888
(F1.3407134043066924
F4.722725946418134
F2.026022001445437
F-2.2958215697439117
F-1.5093659240670172
F-3.3618949293405325
tp889
a(F1.0353849457979827
F0.2508034466496569
F-0.8896951022406477
F1.2310035443568603
F-0.4158090743628453
F0.9580633748272898
tp890
a(F0.4918050240515777
F1.6319068388678448
F-2.3479227850847733
F2.005774776495356
F0.9112366921012558
F0.8181341577872575
tp891
a(tag20
(g54
g22
Ntp892
Rp893
(lp894
I7
aI816028984
ababag20
(g47
g22
Ntp895
Rp896
(lp897
(F1.3622369836733343
F4.728267399321317
F2.0071098905352303
F-2.269923592565952
F-1.5177695460245606
F-3.3419000522705256
tp898
a(F1.04053611468255
F0.284070259061847
F-0.9352916959192875
F1.267412124427078
F-0.39433498579298154
F0.9703479298855608
tp899
a(F3.2458748866363213e-14
F1.5762437200667572
F-2.0469692178770726
F1.5008017956457507
F1.1626073980325904
F0.36208235692562857
tp900
a(tag20
(g54
g22
Ntp901
Rp902
(lp903
I7
aI836714071
ababag20
(g47
g22
Ntp904
Rp905
(lp906
(F1.3834221540701828
F4.734380334901778
F1.9876398344606903
F-2.243805714667315
F-1.5255552625641546
F-3.322068258255089
tp907
a(F1.0103841018145854
F0.3070427167885271
F-0.9491110535221321
F1.2605720268137712
F-0.3598440010106697
F0.9492182584729993
tp908
a(F-2.8979337268501464
F0.6533849464931092
F0.6905635304343382
F-2.1375212503434473
F2.1683742374082575
F-2.3878806296013138
tp909
a(tag20
(g54
g22
Ntp910
Rp911
(lp912
I7
aI857073931
ababag20
(g47
g22
Ntp913
Rp914
(lp915
(F1.4042606886049953
F4.741052209706563
F1.967615641019922
F-2.217480295164586
F-1.5327254822297873
F-3.30241721588237
tp916
a(F0.9498044781132844
F0.31890569005554015
F-0.9326744720770673
F1.2143061731474796
F-0.31582177221788765
F0.8987208280451069
tp917
a(F-2.795350101657559
F0.4652905936594131
F0.8499251113935236
F-2.2072113771762396
F1.9716008372324179
F-2.356651956938897
tp918
a(tag20
(g54
g22
Ntp919
Rp920
(lp921
I7
aI878332708
ababag20
(g47
g22
Ntp922
Rp923
(lp924
(F1.4247458263803665
F4.748270771359803
F1.9470403498474322
F-2.190959005696955
F-1.5392842945046068
F-3.2829639005184275
tp925
a(F0.8866533623369472
F0.32646683605505455
F-0.9098441023786098
F1.1616926545555264
F-0.2734697438472884
F0.8446820751017398
tp926
a(F-2.8547903755963477
F0.21778709393538076
F1.184616908854817
F-2.4939964474994163
F1.8225251348111728
F-2.476423013098011
tp927
a(tag20
(g54
g22
Ntp928
Rp929
(lp930
I7
aI900614253
ababag20
(g47
g22
Ntp931
Rp932
(lp933
(F1.4448721957779451
F4.756024143561416
F1.925916173124744
F-2.1642527302767673
F-1.545237351615512
F-3.263724535578576
tp934
a(F0.8236202659865635
F0.3305967395990584
F-0.8830857219187502
F1.1060609190772248
F-0.2337523626167165
F0.7896795260813686
tp935
a(F-2.5006961369432283
F0.13477070124766133
F1.087377236835056
F-2.231259117427858
F1.5532730792065428
F-2.195967716265602
tp936
a(tag20
(g54
g22
Ntp937
Rp938
(lp939
I7
aI924183367
ababag20
(g47
g22
Ntp940
Rp941
(lp942
(F1.4646357329103306
F4.7643009064404485
F1.9042444319106795
F-2.1373714669877453
F-1.5505917450994187
F-3.2447145411299636
tp943
a(F0.761566730041979
F0.3314582447749569
F-0.8529344876331568
F1.0483193832603284
F-0.19708557821923825
F0.7345574573377702
tp944
a(F-2.4659512172866367
F-0.059969230032191186
F1.3184068615415814
F-2.3846720142732227
F1.3858879599610803
F-2.2144136478419316
tp945
a(tag20
(g54
g22
Ntp946
Rp947
(lp948
I7
aI949096100
ababag20
(g47
g22
Ntp949
Rp950
(lp951
(F1.4840335968747917
F4.773090173296196
F1.8820254873086613
F-2.110324232468056
F-1.555355879210034
F-3.2259484902198587
tp952
a(F0.6969198582886524
F0.3274437629517196
F-0.8151744654037751
F0.9834375980183784
F-0.16260787263079052
F0.6759261374783323
tp953
a(F-2.382607918140465
F-0.23480024752401008
F1.505348521055117
F-2.4753846857673953
F1.204761544294453
F-2.181477666481369
tp954
a(tag20
(g54
g22
Ntp955
Rp956
(lp957
I7
aI975674968
ababag20
(g47
g22
Ntp958
Rp959
(lp960
(F1.5030640832776945
F4.7823816647681365
F1.859258665598402
F-2.0831189697942993
F-1.5595393430923776
F-3.207440073184375
tp961
a(F0.680143736689985
F0.3446166115732334
F-0.8321461856863412
F0.9849436426441557
F-0.140391532209732
F0.6631178028589517
tp962
a(F1.1630657400191076
F1.472355880358627
F-2.7232540181307257
F2.5739772486951913
F0.4023600089943449
F1.2489068374090064
tp963
a(tag20
(g54
g22
Ntp964
Rp965
(lp966
I8
aI4334609
ababag20
(g47
g22
Ntp967
Rp968
(lp969
(F1.5217265373200723
F4.792165781486971
F1.8359421763317372
F-2.0557624600264854
F-1.5631527834519074
F-3.189202070047912
tp970
a(F0.6848427706242073
F0.3714926512087008
F-0.8742557389553011
F1.016484784347468
F-0.12363227542090564
F0.6706859278662509
tp971
a(F-0.8469635397595275
F0.47883057023729997
F-0.3223633012356539
F-0.3075042101867371
F0.8286166836233504
F-0.722537315038096
tp972
a(tag20
(g54
g22
Ntp973
Rp974
(lp975
I8
aI31138061
ababag20
(g47
g22
Ntp976
Rp977
(lp978
(F1.5400212675440763
F4.802433676281179
F1.8120730222243553
F-2.0282602372984737
F-1.5662077791725992
F-3.1712463309854244
tp979
a(F0.6404583932035219
F0.37100245448242675
F-0.8531455891313959
F0.9745255844261435
F-0.09873408862540461
F0.6297189627946431
tp980
a(F-2.3258654289400136
F-0.49054871017963403
F1.7967806522299434
F-2.668397898935342
F0.9681256372122892
F-2.20316801746979
tp981
a(tag20
(g54
g22
Ntp982
Rp983
(lp984
I8
aI58305157
ababag20
(g47
g22
Ntp985
Rp986
(lp987
(F1.5579494611873408
F4.813177327064069
F1.7876468994616184
F-2.00061650700115
F-1.568716719231567
F-3.1535837646898806
tp988
a(F0.5750540661065016
F0.3552204213874799
F-0.7998417492680341
F0.8975093022895799
F-0.07303053773916662
F0.5673992277614872
tp989
a(F-2.097448355926051
F-0.5708530121208807
F1.7998701625072402
F-2.5343173213525283
F0.7747586402287084
F-2.0104406306498026
tp990
a(tag20
(g54
g22
Ntp991
Rp992
(lp993
I8
aI87816500
ababag20
(g47
g22
Ntp994
Rp995
(lp996
(F1.5755131019166837
F4.8243896116000435
F1.7626580867603732
F-1.9728340662134363
F-1.570692684995022
F-3.136224334364388
tp997
a(F0.5063112687410344
F0.33269353694779663
F-0.735178579301163
F0.810588010018956
F-0.050423032442578425
F0.501045895945466
tp998
a(F-2.1050594191425724
F-0.794331891169593
F2.1354468530934625
F-2.767407414347159
F0.616055092843739
F-2.0445410196164975
tp999
a(tag20
(g54
g22
Ntp1000
Rp1001
(lp1002
I8
aI120185530
ababag20
(g47
g22
Ntp1003
Rp1004
(lp1005
(F1.5927148905514141
F4.83606438546017
F1.7370993211875974
F-1.9449142251573415
F-1.572149337735815
F-3.119177060957328
tp1006
a(F0.4918179926767353
F0.3444785435479206
F-0.7477013908611969
F0.809229788604402
F-0.03440771143599833
F0.4879345495203606
tp1007
a(F1.2567405234801163
F1.4688090369525864
F-2.8442545128470043
F2.672194618982886
F0.3108967791495024
F1.2762519248927313
tp1008
a(tag20
(g54
g22
Ntp1009
Rp1010
(lp1011
I8
aI156783819
ababag20
(g47
g22
Ntp1012
Rp1013
(lp1014
(F1.6095581692621226
F4.8481965646404115
F1.7109616583083314
F-1.9168567280788291
F-1.5731008121018
F-3.102450033167376
tp1015
a(F0.47454260242355417
F0.35117290695595127
F-0.7514556771938222
F0.8001349555512551
F-0.020592061095812547
F0.4715939429342738
tp1016
a(F-2.212194539763078
F-1.063513611694244
F2.5807510250309385
F-3.139174594258841
F0.4767908656345268
F-2.1784373543887736
tp1017
a(tag20
(g54
g22
Ntp1018
Rp1019
(lp1020
I8
aI189577101
ababag20
(g47
g22
Ntp1021
Rp1022
(lp1023
(F1.6260468495999358
F4.860782214532095
F1.6842343137001414
F-1.8886596715350616
F-1.5735616160596813
F-3.086050423672279
tp1024
a(F0.39563103189121074
F0.3098968469117531
F-0.6541970610772887
F0.6847426965662096
F-0.0059186948743233945
F0.39365476172158737
tp1025
a(F-1.914579168332703
F-1.0809324921766006
F2.4834922091377134
F-2.8809484015954965
F0.30045061138735984
F-1.8965030992030558
tp1026
a(tag20
(g54
g22
Ntp1027
Rp1028
(lp1029
I8
aI227441601
ababag20
(g47
g22
Ntp1030
Rp1031
(lp1032
(F1.642185344599747
F4.873818647222055
F1.6569044822032235
F-1.8603194176181843
F-1.5735465376729545
F-3.0699845109811044
tp1033
a(F0.36053826858241733
F0.29966101516880533
F-0.6244600307129912
F0.6418610945526592
F0.00567066721294428
F0.3589708058180612
tp1034
a(F0.21408168303762348
F0.5532553132094333
F-0.9903115786618749
F0.7701999738696799
F0.2410190165909481
F0.2155589773198775
tp1035
a(tag20
(g54
g22
Ntp1036
Rp1037
(lp1038
I8
aI272800362
ababag20
(g47
g22
Ntp1039
Rp1040
(lp1041
(F1.65797850509929
F4.8873045294744655
F1.6289571304387251
F-1.8318304991403176
F-1.5730705588960345
F-3.054257706278697
tp1042
a(F0.32027429499788795
F0.2800752856547051
F-0.5777691218273847
F0.5845897336332997
F0.013714411615370436
F0.31888405252344815
tp1043
a(F-1.8115666668666308
F-1.2816079069784552
F2.7622943180420623
F-2.9919434745875697
F0.1089019730965145
F-1.8057502380310244
tp1044
a(tag20
(g54
g22
Ntp1045
Rp1046
(lp1047
I8
aI316036141
ababag20
(g47
g22
Ntp1048
Rp1049
(lp1050
(F1.6734315603520085
F4.901240004240893
F1.6003747570593714
F-1.8031855132064385
F-1.572148776537472
F-3.038874584597429
tp1051
a(F0.1930466051703859
F0.1768483652122839
F-0.3617337317706133
F0.3607258869975437
F0.013166935421673187
F0.19212011801006845
tp1052
a(F-1.7080099968179467
F-1.4829382034184047
F3.0621754155764402
F-3.1062804196347877
F-0.0675745290328164
F-1.701378071018196
tp1053
a(tag20
(g54
g22
Ntp1054
Rp1055
(lp1056
I8
aI372174216
ababag20
(g47
g22
Ntp1057
Rp1058
(lp1059
(F1.688550062920665
F4.915626829172353
F1.5711371138504597
F-1.7743749988788404
F-1.5707963303129624
F-3.023838919662467
tp1060
a(F0.048454978500513474
F0.06912136479509287
F-0.025673250736593337
F0.0077168875774192985
F0.004956978761912204
F0.04815136245828111
tp1061
a(F-0.9531228829429504
F-0.5553378765729579
F2.8829251447989033
F-3.1094840678501816
F-0.07575188718296767
F-0.948483062676754
tp1062
a(tag20
(g54
g22
Ntp1063
Rp1064
(lp1065
I8
aI508592623
ababag20
(g47
g22
Ntp1066
Rp1067
(lp1068
(F1.6868061566833583
F4.919735350453092
F1.5915629470325061
F-1.798909353347761
F-1.570796330249745
F-3.0255828258997735
tp1069
a(F-0.023695305783323826
F0.061145650748097566
F0.27193288866458126
F-0.333078539494984
F8.590688822895933e-10
F-0.02369530578332294
tp1070
a(F-0.22045313820377563
F0.639308478527998
F2.4558132243343755
F-3.0951217036141445
F7.993847531955132e-09
F-0.22045313820379558
tp1071
a(tag20
(g54
g22
Ntp1072
Rp1073
(lp1074
I8
aI633922323
ababag20
(g47
g22
Ntp1075
Rp1076
(lp1077
(F1.6850608248477597
F4.9244020864875475
F1.611421246019846
F-1.8234343883755868
F-1.5707963301864651
F-3.027328157735372
tp1078
a(F-0.03840942737460641
F0.10957240719395225
F0.42986425834707437
F-0.5394366656723578
F1.392729478221364e-09
F-0.03840942737460917
tp1079
a(F-0.2134788877869207
F0.868167427695722
F2.1192814117468393
F-2.987448840120751
F7.745804363862531e-09
F-0.2134788877870399
tp1080
a(tag20
(g54
g22
Ntp1081
Rp1082
(lp1083
I8
aI686059035
ababag20
(g47
g22
Ntp1084
Rp1085
(lp1086
(F1.6833140752851614
F4.929626490584689
F1.6307188665096444
F-1.8479564129684511
F-1.5707963301231231
F-3.0290749072979706
tp1087
a(F-0.04708644558830245
F0.1488738367600732
F0.5119017993542619
F-0.6607756362724269
F1.7076333024435817e-09
F-0.04708644558830844
tp1088
a(F-0.20048211988485987
F1.0302767250472191
F1.7705677948427867
F-2.80084452048379
F7.277954363522309e-09
F-0.20048211988488532
tp1089
a(tag20
(g54
g22
Ntp1090
Rp1091
(lp1092
I8
aI726359843
ababag20
(g47
g22
Ntp1093
Rp1094
(lp1095
(F1.6815659160658727
F4.935408248717455
F1.649461382554991
F-1.8724806871523825
F-1.5707963300597199
F-3.0308230665172595
tp1096
a(F-0.05436206361019412
F0.18893594500489375
F0.5734717098088967
F-0.7624076549928849
F1.9718050570453207e-09
F-0.05436206361020103
tp1097
a(F-0.21865599493030838
F1.2891354882661403
F1.7648445396449601
F-3.0539800285249106
F7.940825164685542e-09
F-0.21865599493033586
tp1098
a(tag20
(g54
g22
Ntp1099
Rp1100
(lp1101
I8
aI760752049
ababag20
(g47
g22
Ntp1102
Rp1103
(lp1104
(F1.6798163553107615
F4.941747190515298
F1.6676532323001605
F-1.8970114787011065
F-1.5707963299962555
F-3.032572627272371
tp1105
a(F-0.06065314991371285
F0.2297521662202493
F0.6204962893692583
F-0.8502484557855043
F2.2003417644876553e-09
F-0.06065314991371652
tp1106
a(F-0.19083608973929458
F1.3828076698931033
F1.2807331232772101
F-2.663540793653606
F6.935091124051895e-09
F-0.19083608973904045
tp1107
a(tag20
(g54
g22
Ntp1108
Rp1109
(lp1110
I8
aI790972104
ababag20
(g47
g22
Ntp1111
Rp1112
(lp1113
(F1.6780654011911675
F4.948643203638249
F1.6852978111901369
F-1.9215520707196387
F-1.5707963299327306
F-3.034323581391965
tp1114
a(F-0.06577784194755117
F0.26978424332965933
F0.6519864693632074
F-0.921770712901282
F2.3866217433652566e-09
F-0.06577784194755548
tp1115
a(F-0.1774365499567769
F1.5031099918823279
F0.9730966972980071
F-2.476206689587701
F6.4515781755128234e-09
F-0.17743654995710118
tp1116
a(tag20
(g54
g22
Ntp1117
Rp1118
(lp1119
I8
aI818584333
ababag20
(g47
g22
Ntp1120
Rp1121
(lp1122
(F1.6763130619288076
F4.9560961508473405
F1.702397556931316
F-1.9461047636754083
F-1.5707963298691456
F-3.036075920654325
tp1123
a(F-0.07035619382411859
F0.3106316758145531
F0.6750341911681452
F-0.9856658672011758
F2.5531236164186483e-09
F-0.0703561938241229
tp1124
a(F-0.1774425049938444
F1.6685962557622627
F0.8078698809643164
F-2.4764661370979506
F6.45447145240345e-09
F-0.17744250499349773
tp1125
a(tag20
(g54
g22
Ntp1126
Rp1127
(lp1128
I8
aI844299794
ababag20
(g47
g22
Ntp1129
Rp1130
(lp1131
(F1.6745593457956798
F4.964105789342423
F1.7189540276452235
F-1.9706708728897906
F-1.5707963298055012
F-3.037829636787453
tp1132
a(F-0.0745821182878047
F0.352636092673125
F0.6919940054571097
F-1.0446300983570906
F2.7068827862272643e-09
F-0.0745821182878047
tp1133
a(F-0.17104037037974812
F1.800879688921845
F0.5849914896375089
F-2.3858711788777462
F6.225090782050715e-09
F-0.17104037037974812
tp1134
a(tag20
(g54
g22
Ntp1135
Rp1136
(lp1137
I8
aI868465990
ababag20
(g47
g22
Ntp1138
Rp1139
(lp1140
(F1.672804261113961
F4.972671692095937
F1.7349679744399464
F-1.9952507224433111
F-1.5707963297417975
F-3.0395847214691716
tp1141
a(F-0.07680217710085784
F0.3868760388533221
F0.6886023784106241
F-1.075478417492698
F2.787865154185992e-09
F-0.0768021771008627
tp1142
a(F-0.0181020771941463
F1.1411231262784656
F-0.8990825082297729
F-0.24204061788668055
F6.747847612417198e-10
F-0.01810207719457245
tp1143
a(tag20
(g54
g22
Ntp1144
Rp1145
(lp1146
I8
aI891379741
ababag20
(g47
g22
Ntp1147
Rp1148
(lp1149
(F1.6710478162559048
F4.981793171054724
F1.750439409441258
F-2.0198436364085848
F-1.5707963296780352
F-3.041341166327228
tp1150
a(F-0.07501986873505279
F0.40096339820608895
F0.6492726724056093
F-1.0502360708304357
F2.723554745240434e-09
F-0.07501986873505304
tp1151
a(F0.169737795631218
F0.08906118405684935
F-2.479030414786023
F2.3899692314256638
F-6.145670526162557e-09
F0.16973779563202737
tp1152
a(tag20
(g54
g22
Ntp1153
Rp1154
(lp1155
I8
aI914188019
ababag20
(g47
g22
Ntp1156
Rp1157
(lp1158
(F1.6692900196437306
F4.991469202214123
F1.765367670169829
F-2.0444479283016235
F-1.5707963296142147
F-3.043098962939402
tp1159
a(F-0.07084963842804726
F0.4006527789063452
F0.5908484760878165
F-0.9915012551962661
F2.5725200881185383e-09
F-0.07084963842804698
tp1160
a(F0.17557921942082472
F-0.10903129535491997
F-2.3645133848200173
F2.4735446808568424
F-6.360693175438134e-09
F0.17557921942010413
tp1161
a(tag20
(g54
g22
Ntp1162
Rp1163
(lp1164
I8
aI938257321
ababag20
(g47
g22
Ntp1165
Rp1166
(lp1167
(F1.6675308797495147
F5.001698352691236
F1.7797514810163972
F-2.0690608896302654
F-1.5707963295503364
F-3.044858102833618
tp1168
a(F-0.06634817558087233
F0.3956877272712187
F0.5323710917681552
F-0.9280588192243934
F2.4094044259612655e-09
F-0.06634817558087264
tp1169
a(F0.1747551815709256
F-0.2719234534073573
F-2.191986992886285
F2.4639104469424082
F-6.333970547749383e-09
F0.17475518157155634
tp1170
a(tag20
(g54
g22
Ntp1171
Rp1172
(lp1173
I8
aI963875130
ababag20
(g47
g22
Ntp1174
Rp1175
(lp1176
(F1.6657704050950726
F5.012478710038066
F1.7935890124486493
F-2.0936787784141977
F-1.5707963294864011
F-3.04661857748806
tp1177
a(F-0.06132656771014516
F0.3845312908416262
F0.47273272326216764
F-0.8572640142708894
F2.2273426821067465e-09
F-0.061326567710144816
tp1178
a(F0.18775160090893622
F-0.5244897875222405
F-2.122249027209205
F2.6467388153785207
F-6.808808699779208e-09
F0.1877516009083987
tp1179
a(tag20
(g54
g22
Ntp1180
Rp1181
(lp1182
I8
aI991370638
ababag20
(g47
g22
Ntp1183
Rp1184
(lp1185
(F1.6640086042518414
F5.0238078141405245
F1.806877938478002
F-2.1182968085507503
F-1.5707963294224092
F-3.0483803783312915
tp1186
a(F-0.05554417713240964
F0.36516432528462917
F0.41060797840283336
F-0.7757723038352711
F2.0175961630567864e-09
F-0.05554417713241663
tp1187
a(F0.19360977710350474
F-0.7427865975699367
F-1.985103179593303
F2.7278897777901845
F-7.024285295525763e-09
F0.1936097771035294
tp1188
a(tag20
(g54
g22
Ntp1189
Rp1190
(lp1191
I9
aI21422464
ababag20
(g47
g22
Ntp1192
Rp1193
(lp1194
(F1.6622454858407563
F5.035682592145426
F1.819615492818574
F-2.1429091409008554
F-1.5707963293583609
F-3.050143496742377
tp1195
a(F-0.05496559840569176
F0.3788806234065646
F0.387911477896503
F-0.7667921014456311
F1.996853617752795e-09
F-0.05496559840569868
tp1196
a(F-0.15566334426206707
F1.5884114967566845
F0.5533111348063764
F-2.1417226318574283
F5.663030951454542e-09
F-0.15566334426208672
tp1197
a(tag20
(g54
g22
Ntp1198
Rp1199
(lp1200
I9
aI55029397
ababag20
(g47
g22
Ntp1201
Rp1202
(lp1203
(F1.660481058532124
F5.048099296943494
F1.8317985240820795
F-2.167508876966952
F-1.5707963292942568
F-3.0519079240510094
tp1204
a(F-0.05418134834221136
F0.3889010504079011
F0.36594058169511445
F-0.7548416322402615
F1.9685952711252785e-09
F-0.054181348342211784
tp1205
a(F0.2010448805583686
F-0.9491073839411779
F-1.887970692749016
F2.837078077304925
F-7.297333283756345e-09
F0.20104488055878558
tp1206
a(tag20
(g54
g22
Ntp1207
Rp1208
(lp1209
I9
aI85732037
ababag20
(g47
g22
Ntp1210
Rp1211
(lp1212
(F1.6587153310454938
F5.061053449810732
F1.843423550269491
F-2.192088056026014
F-1.5707963292300977
F-3.0536736515376393
tp1213
a(F-0.04715504461293385
F0.35237163398473964
F0.30344911397190344
F-0.6558207480730978
F1.713510891177089e-09
F-0.04715504461293065
tp1214
a(F0.19839216602688267
F-1.1148015832642773
F-1.6778410341850107
F2.7926426180191415
F-7.2037204997941286e-09
F0.19839216602671297
tp1215
a(tag20
(g54
g22
Ntp1216
Rp1217
(lp1218
I9
aI120425956
ababag20
(g47
g22
Ntp1219
Rp1220
(lp1221
(F1.6569483121495223
F5.074539787871222
F1.8544868127418155
F-2.2166376565631314
F-1.570796329165884
F-3.055440670433611
tp1222
a(F-0.038481499359885166
F0.2985981145037776
F0.23548903919619577
F-0.5340871537925944
F1.3984976640741832e-09
F-0.038481499359883056
tp1223
a(F0.21128861263003706
F-1.402888751722071
F-1.555938153394598
F2.9588269056773258
F-7.67509670376988e-09
F0.21128861263012724
tp1224
a(tag20
(g54
g22
Ntp1225
Rp1226
(lp1227
I9
aI161125999
ababag20
(g47
g22
Ntp1228
Rp1229
(lp1230
(F1.655180010661836
F5.088552217089654
F1.864984329777489
F-2.2411476028214286
F-1.5707963291016158
F-3.057208971921297
tp1231
a(F-0.023830856269213677
F0.19087125960724646
F0.1391688715466328
F-0.33004013120992204
F8.661517561597598e-10
F-0.023830856269212455
tp1232
a(F0.21824428794080916
F-1.6838206447788109
F-1.347333545568672
F3.0311541908749935
F-7.931326848801888e-09
F0.218244287940742
tp1233
a(tag20
(g54
g22
Ntp1234
Rp1235
(lp1236
I9
aI213836620
ababag20
(g47
g22
Ntp1237
Rp1238
(lp1239
(F1.6534104354488905
F5.103083771529357
F1.8749119497521896
F-2.2656067772399138
F-1.570796329037294
F-3.0589785471342426
tp1240
a(F0.0
F0.0
F0.0
F0.0
F0.0
F0.0
tp1241
a(F0.2251560873658577
F-1.848956697094288
F-1.263164206870961
F3.112120904484612
F-8.184146673649714e-09
F0.22515608736588594
tp1242
a(tag20
(g54
g22
Ntp1243
Rp1244
(lp1245
I9
aI339210673
ababag20
(g47
g22
Ntp1246
Rp1247
(lp1248
g1240
a(lp1249
I0
aI0
aI0
aI0
aI0
aI0
aa(lp1250
a(lp1251
ag20
(g54
g22
Ntp1252
Rp1253
(lp1254
I9
aI839210673
ababaaba(lp1255
a(lp1256
ag20
(g54
g22
Ntp1257
Rp1258
(lp1259
I0
aI0
ababsS'post'
p1260
g20
(g21
g22
Ntp1261
Rp1262
(lp1263
g20
(g26
g22
Ntp1264
Rp1265
(lp1266
g20
(g30
g22
Ntp1267
Rp1268
(lp1269
I0
ag20
(g34
g22
Ntp1270
Rp1271
(lp1272
I0
aI0
abag38
aba(lp1273
g40
ag41
ag42
ag43
ag44
ag45
aa(lp1274
g20
(g47
g22
Ntp1275
Rp1276
(lp1277
(F1.6534104354488905
F5.103083771529357
F1.8749119497521896
F-2.2656067772399138
F-1.570796329037294
F-3.0589785471342426
tp1278
a(F0.0
F0.0
F0.0
F0.0
F0.0
F0.0
tp1279
a(F0.0
F0.0
F0.0
F0.0
F0.0
F0.0
tp1280
a(tag20
(g54
g22
Ntp1281
Rp1282
(lp1283
I0
aI0
ababag20
(g47
g22
Ntp1284
Rp1285
(lp1286
(F1.6361035751858528
F5.0967148221178595
F1.8834023113982206
F-2.26772818951322
F-1.5707963284081379
F-3.0762854073972803
tp1287
a(F-0.31780609225536705
F-0.11317021401465317
F0.14966141291997764
F-0.03649119948949131
F1.1561068753739298e-08
F-0.3178060922553722
tp1288
a(F-2.9943974923232957
F-0.9741101693696824
F1.2578774702978115
F-0.2837673033173502
F1.0912117398842394e-07
F-2.9943974923234697
tp1289
a(tag20
(g54
g22
Ntp1290
Rp1291
(lp1292
I0
aI75511739
ababag20
(g47
g22
Ntp1293
Rp1294
(lp1295
(F1.6186851664313366
F5.090629079197567
F1.8914119062269301
F-2.2696520414497035
F-1.5707963277742523
F-3.093703816151797
tp1296
a(F-0.46283181244100524
F-0.15690575574562038
F0.20497719292932345
F-0.04807143776492462
F1.6850514215601646e-08
F-0.46283181244100713
tp1297
a(F-2.9458331579163457
F-0.7785292927177299
F0.9447317721659441
F-0.16620247560242843
F1.0758377959834496e-07
F-2.9458331579159047
tp1298
a(tag20
(g54
g22
Ntp1299
Rp1300
(lp1301
I0
aI118370111
ababag20
(g47
g22
Ntp1302
Rp1303
(lp1304
(F1.6011641063550552
F5.084831478542953
F1.8989389950839182
F-2.2713815296692053
F-1.57079632713614
F-3.111224876228078
tp1305
a(F-0.568080287842389
F-0.18230083275925546
F0.23486590380868635
F-0.05256507140796627
F2.0694606593839203e-08
F-0.5680802878423817
tp1306
a(F-3.1356610962363476
F-0.6732996646037029
F0.7574651802422454
F-0.084165506068842
F1.1453878550909121e-07
F-3.1356610962363085
tp1307
a(tag20
(g54
g22
Ntp1308
Rp1309
(lp1310
I0
aI152113402
ababag20
(g47
g22
Ntp1311
Rp1312
(lp1313
(F1.583549705367049
F5.07932695354634
F1.9059818053033213
F-2.2729198148979766
F-1.570796326494327
F-3.128839277216084
tp1314
a(F-0.6544372919037624
F-0.1981765969410253
F0.25150980240100185
F-0.053333205460225915
F2.384768040921654e-08
F-0.65443729190375
tp1315
a(F-2.7728119579341897
F-0.3982956400163502
F0.3581950044355055
F0.04010065104374302
F1.0118441894502154e-07
F-2.772811957933837
tp1316
a(tag20
(g54
g22
Ntp1317
Rp1318
(lp1319
I0
aI180665805
ababag20
(g47
g22
Ntp1320
Rp1321
(lp1322
(F1.5658516563715248
F5.074120395081258
F1.912538572051287
F-2.2742700231755153
F-1.570796325849361
F-3.146537326211608
tp1323
a(F-0.7243729689577378
F-0.2061942333726177
F0.25739912844722634
F-0.051204894611848746
F2.639613523415265e-08
F-0.7243729689577244
tp1324
a(F-2.6427544688203777
F-0.2142521847014619
F0.08496840565025329
F0.12928379974116838
F9.614392813542763e-08
F-2.642754468820699
tp1325
a(tag20
(g54
g22
Ntp1326
Rp1327
(lp1328
I0
aI206242508
ababag20
(g47
g22
Ntp1329
Rp1330
(lp1331
(F1.548080010106497
F5.069216617520633
F1.9186075605424062
F-2.275435234089183
F-1.570796325201808
F-3.1643089724766353
tp1332
a(F-0.7922360480797241
F-0.21106411135715994
F0.2586888391728785
F-0.047624726797714116
F2.8860065766031027e-08
F-0.7922360480797246
tp1333
a(F-3.1489356351169584
F-0.19915993074146934
F0.02199187332345571
F0.17716808419814806
F1.1411994206387415e-07
F-3.148935635117836
tp1334
a(tag20
(g54
g22
Ntp1335
Rp1336
(lp1337
I0
aI229725555
ababag20
(g47
g22
Ntp1338
Rp1339
(lp1340
(F1.5302451473155438
F5.064620324693743
F1.9241870870693916
F-2.276418467760846
F-1.570796324552252
F-3.182143835267589
tp1341
a(F-0.8531455891313962
F-0.21187139702634852
F0.25443719893804834
F-0.04256580026638129
F3.1059563859083623e-08
F-0.8531455891314013
tp1342
a(F-2.430128668912405
F0.13695202981045748
F-0.4294508069654322
F0.2924988082555336
F8.731457244019819e-08
F-2.4301286689119124
tp1343
a(tag20
(g54
g22
Ntp1344
Rp1345
(lp1346
I0
aI251273419
ababag20
(g47
g22
Ntp1347
Rp1348
(lp1349
(F1.5123577478741541
F5.060336076067148
F1.92927553877772
F-2.2772226708024492
F-1.5707963239012912
F-3.2000312347089785
tp1350
a(F-0.8742557389553005
F-0.2014767411632598
F0.23646331188132438
F-0.0349865684735958
F3.179858538088031e-08
F-0.8742557389553058
tp1351
a(F0.42466439015377166
F0.8747910016522895
F-1.3155928175855036
F0.44080184261865046
F-1.7158811422978556e-08
F0.4246643901532459
tp1352
a(tag20
(g54
g22
Ntp1353
Rp1354
(lp1355
I0
aI271632276
ababag20
(g47
g22
Ntp1356
Rp1357
(lp1358
(F1.4944287570398558
F5.056368253458805
F1.9338713921129054
F-2.2778507014773997
F-1.5707963232495363
F-3.217960225543277
tp1359
a(F-0.8446986031003915
F-0.17947020489039237
F0.20507811685681865
F-0.02560790925461763
F3.068523742618954e-08
F-0.8446986031003918
tp1360
a(F2.371053468273156
F1.2271845447251442
F-1.6846827305984085
F0.4574982041230036
F-8.819187599197902e-08
F2.371053468274143
tp1361
a(tag20
(g54
g22
Ntp1362
Rp1363
(lp1364
I0
aI292242534
ababag20
(g47
g22
Ntp1365
Rp1366
(lp1367
(F1.4764693490416556
F5.052721028613249
F1.9379732298661385
F-2.2783053143213943
F-1.5707963225976074
F-3.235919633541477
tp1368
a(F-0.7881385930882988
F-0.15314463649335694
F0.16949045254060768
F-0.016345813005990625
F2.8585443351871456e-08
F-0.788138593088289
tp1369
a(F2.7458965238431556
F1.162987175983716
F-1.5481935231443802
F0.38520635902196326
F-1.0178668712365539e-07
F2.745896523843117
tp1370
a(tag20
(g54
g22
Ntp1371
Rp1372
(lp1373
I0
aI314157854
ababag20
(g47
g22
Ntp1374
Rp1375
(lp1376
(F1.4584908882692154
F5.049398331978191
F1.9415797567441897
F-2.278589144488921
F-1.5707963219461316
F-3.253898094313917
tp1377
a(F-0.7243729689577385
F-0.12753544631607147
F0.13573191133071688
F-0.008196461748692214
F2.622260844307163e-08
F-0.7243729689577381
tp1378
a(F2.606131484346242
F0.9913978501643413
F-1.2929987722344576
F0.3016009292470656
F-9.653575998992964e-08
F2.6061314843455237
tp1379
a(tag20
(g54
g22
Ntp1380
Rp1381
(lp1382
I0
aI337914182
ababag20
(g47
g22
Ntp1383
Rp1384
(lp1385
(F1.44050488836449
F5.046403823028584
F1.9446898133915853
F-2.278704692099498
F-1.5707963212957397
F-3.2718840942186427
tp1386
a(F-0.656089842769045
F-0.10352706957551074
F0.10488082792627693
F-0.001353754967854452
F2.3697836504751763e-08
F-0.6560898427690494
tp1387
a(F2.6094012823361807
F0.849535954005718
F-1.0744388352146634
F0.22490288322377888
F-9.63253828296211e-08
F2.6094012823364916
tp1388
a(tag20
(g54
g22
Ntp1389
Rp1390
(lp1391
I0
aI363907023
ababag20
(g47
g22
Ntp1392
Rp1393
(lp1394
(F1.4225229695571502
F5.043740862482571
F1.9473023887970704
F-2.2786543068600875
F-1.570796320647063
F-3.2898660130259825
tp1395
a(F-0.5745783418824226
F-0.08019904158747496
F0.07617799317885413
F0.0040210517397418445
F2.0701102257759187e-08
F-0.5745783418824194
tp1396
a(F2.899749661509101
F0.7401572433417981
F-0.8852158343233641
F0.14505858593148405
F-1.0626574636500181e-07
F2.8997496615093095
tp1397
a(tag20
(g54
g22
Ntp1398
Rp1399
(lp1400
I0
aI392899833
ababag20
(g47
g22
Ntp1401
Rp1402
(lp1403
(F1.4045568146189553
F5.041412486744567
F1.949416631022052
F-2.2784401732366177
F-1.5707963200007307
F-3.307832167964177
tp1404
a(F-0.473606142434498
F-0.05748775284234735
F0.04995348054667738
F0.007534275342287705
F1.7014886165001896e-08
F-0.4736061424344947
tp1405
a(F2.879784854921394
F0.5757077459981099
F-0.6397266963034605
F0.06401893963492059
F-1.0480211500422182e-07
F2.8797848549212235
tp1406
a(tag20
(g54
g22
Ntp1407
Rp1408
(lp1409
I0
aI426866380
ababag20
(g47
g22
Ntp1410
Rp1411
(lp1412
(F1.3866181238403232
F5.0394213848938945
F1.9510318561959203
F-2.2780642964379454
F-1.570796319357367
F-3.325770858742809
tp1413
a(F-0.33213722465360707
F-0.03456178236967207
F0.02649775712132829
F0.008064027583866361
F1.1896980086474673e-08
F-0.33213722465360707
tp1414
a(F2.979275926222862
F0.4103636222916805
F-0.3861432313806751
F-0.024220408414832105
F-1.0736864235187525e-07
F2.979275926222862
tp1415
a(tag20
(g54
g22
Ntp1416
Rp1417
(lp1418
I0
aI469753638
ababag20
(g47
g22
Ntp1419
Rp1420
(lp1421
(F1.3687185694538568
F5.037769878513107
F1.9521475557316488
F-2.2775284894597707
F-1.5707963187175873
F-3.3436704131292756
tp1422
a(F-0.33271846618096035
F-0.02674042652156778
F0.014902726715434468
F0.011837702414609106
F1.186437611863871e-08
F-0.33271846618095513
tp1423
a(F-3.008044045711328
F-0.14024945534509797
F-0.01493847908950891
F0.15518796145693614
F1.0654787551304372e-07
F-3.0080440457111473
tp1424
a(tag20
(g54
g22
Ntp1425
Rp1426
(lp1427
I0
aI542516376
ababag20
(g47
g22
Ntp1428
Rp1429
(lp1430
(F1.3508697499438052
F5.036459904618771
F1.9527634017246835
F-2.276834361414317
F-1.570796318081996
F-3.361519232639327
tp1431
a(F-0.4741873839618518
F-0.029768694611742398
F0.008958582305112081
F0.02081011630435091
F1.684757173088839e-08
F-0.47418738396184656
tp1432
a(F-2.8746907941843864
F0.05329470011420391
F-0.28949285012619463
F0.23619818205202342
F1.0036614161629298e-07
F-2.8746907941846604
tp1433
a(tag20
(g54
g22
Ntp1434
Rp1435
(lp1436
I0
aI585070505
ababag20
(g47
g22
Ntp1437
Rp1438
(lp1439
(F1.3330831446868934
F5.0354930019197175
F1.9528792505085666
F-2.2759833073441955
F-1.5707963174511828
F-3.3793058378962386
tp1440
a(F-0.5715079461620562
F-0.025170784859339986
F-0.004935569233279704
F0.030106359265055144
F2.0221337985180697e-08
F-0.57150794616206
tp1441
a(F-2.7257764253761403
F0.22940799608282808
F-0.5366031186007343
F0.30719515866225033
F9.362669251122295e-08
F-2.725776425376389
tp1442
a(tag20
(g54
g22
Ntp1443
Rp1444
(lp1445
I0
aI618697598
ababag20
(g47
g22
Ntp1446
Rp1447
(lp1448
(F1.3153700693683625
F5.034870300584501
F1.952495144351775
F-2.274976499686706
F-1.5707963168257206
F-3.3970189132147697
tp1449
a(F-0.6530194470486776
F-0.016245817350652336
F-0.024004437472494238
F0.040250261140213656
F2.30013871186637e-08
F-0.6530194470486814
tp1450
a(F-2.867419536848239
F0.3933703464386818
F-0.787039160056989
F0.3936688563368536
F9.703692711980489e-08
F-2.867419536847953
tp1451
a(tag20
(g54
g22
Ntp1452
Rp1453
(lp1454
I0
aI647542537
ababag20
(g47
g22
Ntp1455
Rp1456
(lp1457
(F1.2977416326073874
F5.034592515652033
F1.9516113112916187
F-2.273814881518368
F-1.570796316206163
F-3.414647349975745
tp1458
a(F-0.724372968957738
F-0.0039966413365425954
F-0.04719720145534684
F0.05119385024652243
F2.5391888558088596e-08
F-0.7243729689577427
tp1459
a(F-2.6653565843478004
F0.5679749446579878
F-1.0282573738448386
F0.46028247502519404
F8.820991484195803e-08
F-2.665356584348193
tp1460
a(tag20
(g54
g22
Ntp1461
Rp1462
(lp1463
I0
aI673018638
ababag20
(g47
g22
Ntp1464
Rp1465
(lp1466
(F1.2802086942084538
F5.0346599441684035
F1.9502281631124738
F-2.272499161669973
F-1.570796315593041
F-3.4321802883746786
tp1467
a(F-0.7840817069581746
F0.01105853115127148
F-0.07365989569816055
F0.06260137309660671
F2.7343852287712577e-08
F-0.7840817069581794
tp1468
a(F-2.445519561158036
F0.7300194515501085
F-1.2505668732643662
F0.5205474698843601
F7.877558988251081e-08
F-2.445519561157608
tp1469
a(tag20
(g54
g22
Ntp1470
Rp1471
(lp1472
I0
aI696186263
ababag20
(g47
g22
Ntp1473
Rp1474
(lp1475
(F1.2627818254302317
F5.035072466080069
F1.948346291486884
F-2.271029811760869
F-1.5707963149868613
F-3.449607157152901
tp1476
a(F-0.8363352505944477
F0.028437772353655036
F-0.10301367013957426
F0.07457590741380812
F2.9007233324585812e-08
F-0.8363352505944587
tp1477
a(F-2.4011687417469174
F0.8881153356293745
F-1.481188864210636
F0.5930735805841073
F7.543999902148292e-08
F-2.40116874174798
tp1478
a(tag20
(g54
g22
Ntp1479
Rp1480
(lp1481
I0
aI717664397
ababag20
(g47
g22
Ntp1482
Rp1483
(lp1484
(F1.245471271631588
F5.0358295488602565
F1.9459664623088544
F-2.2694070651586586
F-1.5707963143881047
F-3.4669177109515448
tp1485
a(F-0.8832605817225386
F0.04782568799378657
F-0.13497732150171057
F0.08715164420661356
F3.0458737007404227e-08
F-0.8832605817225496
tp1486
a(F-2.2483423005213123
F1.0395372669941638
F-1.6957264798812952
F0.6561892671607125
F6.830513726377356e-08
F-2.2483423005201817
tp1487
a(tag20
(g54
g22
Ntp1488
Rp1489
(lp1490
I0
aI737762724
ababag20
(g47
g22
Ntp1491
Rp1492
(lp1493
(F1.2282869176164826
F5.036930255793118
F1.9430896082588272
F-2.2676309178283285
F-1.5707963137972236
F-3.4841020649666503
tp1494
a(F-0.9283157482475604
F0.06925470731011016
F-0.16988219788562597
F0.10062750237187046
F3.1818631087337005e-08
F-0.9283157482475604
tp1495
a(F-2.5025496460017034
F1.221829670208885
F-1.9875785133936996
F0.7657489046853897
F7.506420204565541e-08
F-2.5025496460017034
tp1496
a(tag20
(g54
g22
Ntp1497
Rp1498
(lp1499
I0
aI756746180
ababag20
(g47
g22
Ntp1500
Rp1501
(lp1502
(F1.2112382559565713
F5.038373257790193
F1.939716819649059
F-2.265701130994083
F-1.5707963132146405
F-3.5011507266265616
tp1503
a(F-0.9707190090251063
F0.09249453076983974
F-0.2073657910705548
F0.11487127320379846
F3.306157531057313e-08
F-0.9707190090250933
tp1504
a(F-2.207882247226273
F1.3679723273518714
F-2.1886009289570776
F0.8206286632555366
F6.29169695788195e-08
F-2.207882247224788
tp1505
a(tag20
(g54
g22
Ntp1506
Rp1507
(lp1508
I0
aI774665664
ababag20
(g47
g22
Ntp1509
Rp1510
(lp1511
(F1.1943343585235184
F5.040156848567321
F1.9358493336062683
F-2.263617235498904
F-1.5707963126407476
F-3.518054624059614
tp1512
a(F-0.990034409836087
F0.11494455135634475
F-0.242128589528266
F0.12718405189837007
F3.349842414834234e-08
F-0.9900344098360806
tp1513
a(F-1.3064073031666325e-14
F1.2334801383498641
F-1.8375549698664932
F0.6040748649380161
F-1.3364209083808769e-08
F-2.3123409266049396e-12
tp1514
a(tag20
(g54
g22
Ntp1515
Rp1516
(lp1517
I0
aI791739714
ababag20
(g47
g22
Ntp1518
Rp1519
(lp1520
(F1.1775838514134576
F5.042278962968613
F1.9314885216553197
F-2.2613785377122024
F-1.5707963120759054
F-3.534805131169675
tp1521
a(F-0.9707190090251064
F0.13320539812488644
F-0.2680258838784668
F0.13482049975936122
F3.2620809005286564e-08
F-0.9707190090251256
tp1522
a(F2.248891550013423
F0.9056357212531576
F-1.1970417164200529
F0.29140599462052696
F-8.895741057946315e-08
F2.2488915500127056
tp1523
a(tag20
(g54
g22
Ntp1524
Rp1525
(lp1526
I0
aI808658830
ababag20
(g47
g22
Ntp1527
Rp1528
(lp1529
(F1.1609948933949996
F5.044737198188208
F1.926635875773148
F-2.2589841268054984
F-1.5707963115204413
F-3.5513940891881335
tp1530
a(F-0.9328418876889644
F0.14821361761561488
F-0.2879041736273834
F0.13969056999356713
F3.1123697069572276e-08
F-0.9328418876889709
tp1531
a(F2.097636564564315
F0.8170358279907144
F-1.084553130627444
F0.2675173004568367
F-8.284328419016659e-08
F2.097636564566448
tp1532
a(tag20
(g54
g22
Ntp1533
Rp1534
(lp1535
I0
aI826095130
ababag20
(g47
g22
Ntp1536
Rp1537
(lp1538
(F1.1445751579608499
F5.047528837611162
F1.9212929929860285
F-2.2564328831905773
F-1.5707963109746501
F-3.567813824622283
tp1539
a(F-0.8920931875397633
F0.16132158283229334
F-0.3049008153698537
F0.1435792463986058
F2.9544108528317327e-08
F-0.8920931875397451
tp1540
a(F2.422707355632737
F0.6418611870440278
F-0.8079959022084651
F0.1661347040851279
F-9.243562504192804e-08
F2.4227073556333676
tp1541
a(tag20
(g54
g22
Ntp1542
Rp1543
(lp1544
I0
aI844054324
ababag20
(g47
g22
Ntp1545
Rp1546
(lp1547
(F1.128331819012641
F5.050650876972509
F1.9154615585855008
F-2.253723487894471
F-1.5707963104387939
F-3.5840571635704914
tp1548
a(F-0.8487960580918175
F0.17247856882910256
F-0.3189590209097344
F0.14648046572802975
F2.7894897068271216e-08
F-0.8487960580918112
tp1549
a(F2.2176652649630753
F0.5545560332488442
F-0.6995037258503447
F0.14494768081633314
F-8.432453772588827e-08
F2.2176652649612207
tp1550
a(tag20
(g54
g22
Ntp1551
Rp1552
(lp1553
I0
aI862726842
ababag20
(g47
g22
Ntp1554
Rp1555
(lp1556
(F1.112271540160093
F5.054100052518436
F1.9091433280387489
F-2.250854432631011
F-1.5707963099131013
F-3.6001174424230395
tp1557
a(F-0.8037017372193747
F0.18155464495420148
F-0.32992388696288055
F0.14836925535658396
F2.6204790815597544e-08
F-0.8037017372193803
tp1558
a(F2.412971423748862
F0.3820251299118392
F-0.4332360338372915
F0.051210885080890174
F-8.9279868860123e-08
F2.412971423749437
tp1559
a(tag20
(g54
g22
Ntp1560
Rp1561
(lp1562
I0
aI882130674
ababag20
(g47
g22
Ntp1563
Rp1564
(lp1565
(F1.096400467570035
F5.057872870845906
F1.9023401076678472
F-2.247824030319697
F-1.5707963093977686
F-3.6159885150130977
tp1566
a(F-0.7534871088553414
F0.18761238517731893
F-0.3361308151696334
F0.14851844289753802
F2.4368301693727134e-08
F-0.7534871088553414
tp1567
a(F2.5034910396647536
F0.21574997218859324
F-0.18140681923479787
F-0.03434317732708334
F-9.05818014817817e-08
F2.5034910396647536
tp1568
a(tag20
(g54
g22
Ntp1569
Rp1570
(lp1571
I0
aI902485574
ababag20
(g47
g22
Ntp1572
Rp1573
(lp1574
(F1.080724226258982
F5.061965640096587
F1.8950537341690812
F-2.2446304257989405
F-1.57079630889296
F-3.6316647563241506
tp1575
a(F-0.6961081852430473
F0.18965271648946336
F-0.3358900381875942
F0.1462373339740276
F2.2325552384275588e-08
F-0.6961081852430425
tp1576
a(F2.7792916641308834
F-0.019647857805953926
F0.19107802300041768
F-0.17143019856137845
F-9.758549260232814e-08
F2.7792916641313097
tp1577
a(tag20
(g54
g22
Ntp1578
Rp1579
(lp1580
I0
aI924040882
ababag20
(g47
g22
Ntp1581
Rp1582
(lp1583
(F1.065247919685504
F5.066374502187381
F1.8872860530384237
F-2.2412716064820706
F-1.5707963083988081
F-3.6471410628976284
tp1584
a(F-0.6304894431158734
F0.18683988271326166
F-0.3278071050364799
F0.14096723375541895
F2.004873475850685e-08
F-0.6304894431158687
tp1585
a(F2.8198256568501203
F-0.21208924047387534
F0.4860382440345058
F-0.2739490419876483
F-9.678655839615693e-08
F2.8198256568497295
tp1586
a(tag20
(g54
g22
Ntp1587
Rp1588
(lp1589
I0
aI947314933
ababag20
(g47
g22
Ntp1590
Rp1591
(lp1592
(F1.0499761324660706
F5.071095465772683
F1.8790388959621958
F-2.237745412710254
F-1.5707963079154155
F-3.662412850117062
tp1593
a(F-0.5582751379910182
F0.17901545251091866
F-0.311682699667869
F0.13266725755100026
F1.759780903909e-08
F-0.5582751379910145
tp1594
a(F2.767101318598239
F-0.3835550064358581
F0.7465353044196031
F-0.36298033965511095
F-9.29439958360533e-08
F2.76710131859852
tp1595
a(tag20
(g54
g22
Ntp1596
Rp1597
(lp1598
I0
aI972937913
ababag20
(g47
g22
Ntp1599
Rp1600
(lp1601
(F1.0349129360106846
F5.0761244396520295
F1.8703140572229777
F-2.2340495475660465
F-1.570796307442855
F-3.6774760465724476
tp1602
a(F-0.49731483061019155
F0.17201332671641736
F-0.2976109893216529
F0.12559767210464884
F1.5534306202998742e-08
F-0.4973148306101878
tp1603
a(F1.5409991511502923
F-0.1175070226285398
F0.2581196944116149
F-0.14061269343669572
F-5.281661940139143e-08
F1.540999151150038
tp1604
a(tag20
(g54
g22
Ntp1605
Rp1606
(lp1607
I1
aI1876042
ababag20
(g47
g22
Ntp1608
Rp1609
(lp1610
(F1.0200618968526405
F5.0814572663603395
F1.8611132691599082
F-2.2301815859239387
F-1.570796306981172
F-3.6923270857304917
tp1611
a(F-0.4179010951523417
F0.1547210619919392
F-0.26641432856282715
F0.11169327474021051
F1.2939586710916452e-08
F-0.4179010951523362
tp1612
a(F3.1312863921873935
F-0.8648723256195197
F1.5215786703697944
F-0.6567064006848872
F-1.0023904794238722e-07
F3.1312863921877
tp1613
a(tag20
(g54
g22
Ntp1614
Rp1615
(lp1616
I1
aI33200836
ababag20
(g47
g22
Ntp1617
Rp1618
(lp1619
(F1.005426087430097
F5.087089755705765
F1.8514381767096484
F-2.226138982529165
F-1.5707963065303843
F-3.7069628951530347
tp1620
a(F-0.24327573643390804
F0.09526518474320954
F-0.16348926979825526
F0.0682240899025537
F7.474876497958453e-09
F-0.24327573643390063
tp1621
a(F3.0376248538236306
F-1.1268867524668011
F1.9395477023087104
F-0.812661009296369
F-9.40239317046637e-08
F3.037624853823539
tp1622
a(tag20
(g54
g22
Ntp1623
Rp1624
(lp1625
I1
aI73664375
ababag20
(g47
g22
Ntp1626
Rp1627
(lp1628
(F0.9910080990657717
F5.093017718051342
F1.841290311039425
F-2.2219190789123933
F-1.5707963060904848
F-3.7213808835173596
tp1629
a(F-0.024531903262227137
F-0.012341192389996005
F-0.033519611740247625
F-0.09220930821741957
F-0.21634563832039905
F-0.029463754296892082
tp1630
a(F1.450783034049908
F-0.9208396654746321
F0.7860534305412151
F-1.8620030738987055
F-3.12882092986517
F1.3794579147253052
tp1631
a(tag20
(g54
g22
Ntp1632
Rp1633
(lp1634
I1
aI189148864
ababag20
(g47
g22
Ntp1635
Rp1636
(lp1637
(F1.0032168874725158
F5.08077194125558
F1.844646483947775
F-2.2575155978760177
F-1.640502765204077
F-3.710761135093787
tp1638
a(F0.10306984638157411
F-0.09537929710333148
F0.02548003482498233
F-0.29747222563597275
F-0.5913376201521682
F0.07343571003547766
tp1639
a(F0.4275010374489324
F-0.30341196848929675
F0.07280927881417606
F-1.1987647147087586
F-2.4855943574765798
F0.11774740572048575
tp1640
a(tag20
(g54
g22
Ntp1641
Rp1642
(lp1643
I1
aI350248618
ababag20
(g47
g22
Ntp1644
Rp1645
(lp1646
(F1.0154971110618334
F5.0699623316291875
F1.8474846310056534
F-2.2927470473256744
F-1.711155396770886
F-3.7031350949440873
tp1647
a(F0.15009618947153086
F-0.122007546643183
F0.03161720084481228
F-0.4321624232391629
F-0.8697695539776036
F0.0719891543821263
tp1648
a(F0.4745284945198234
F-0.17458001967077735
F0.03581747993546883
F-1.398486672456434
F-2.8794409907742358
F-0.2154297039275472
tp1649
a(tag20
(g54
g22
Ntp1650
Rp1651
(lp1652
I1
aI444454142
ababag20
(g47
g22
Ntp1653
Rp1654
(lp1655
(F1.0277585840531334
F5.060629590046515
F1.8498748283603612
F-2.3281474565829474
F-1.782596979589071
F-3.6985848038135862
tp1656
a(F0.1838902421175801
F-0.1282201418541558
F0.03279698172477158
F-0.5395781743679853
F-1.0818260317397557
F0.0422487504916687
tp1657
a(F0.4208429039077749
F0.031442552237964716
F-0.009290263664080329
F-1.4744758212528903
F-2.7631174423454814
F-0.6222259499332606
tp1658
a(tag20
(g54
g22
Ntp1659
Rp1660
(lp1661
I1
aI516649798
ababag20
(g47
g22
Ntp1662
Rp1663
(lp1664
(F1.039908251576661
F5.052823963591467
F1.8518688448945673
F-2.3642886512887045
F-1.8546623302631902
F-3.6972669708010324
tp1665
a(F0.2090967174288576
F-0.12088935558439079
F0.031260795664672617
F-0.6403004054609711
F-1.2556691122607078
F-0.009180195782312736
tp1666
a(F0.3859040039346782
F0.21732248211943514
F-0.04241916249031267
F-1.7813996678541548
F-2.822485818707819
F-1.0605396556729703
tp1667
a(tag20
(g54
g22
Ntp1668
Rp1669
(lp1670
I1
aI578029186
ababag20
(g47
g22
Ntp1671
Rp1672
(lp1673
(F1.0518510587382797
F5.046609434902418
F1.8534974529502526
F-2.401799931933444
F-1.9271728380870121
F-3.6994267475164997
tp1674
a(F0.2288118684327236
F-0.10359022387881561
F0.027946666047006682
F-0.7496027142008999
F-1.4104951648071649
F-0.0809921631347533
tp1675
a(F0.33167448660952564
F0.42681761773561466
F-0.08088994823785953
F-2.2397131129268772
F-2.8376382547186294
F-1.5944745241311067
tp1676
a(tag20
(g54
g22
Ntp1677
Rp1678
(lp1679
I1
aI632253137
ababag20
(g47
g22
Ntp1680
Rp1681
(lp1682
(F1.0634910202248509
F5.042070045799325
F1.8547654590770397
F-2.4413929265459755
F-1.9999304958415318
F-3.7054167183660787
tp1683
a(F0.24223911488964134
F-0.0765254847899752
F0.022581307909769022
F-0.8708198584655447
F-1.54178470830678
F-0.17435628462312858
tp1684
a(F0.20586528107343838
F0.6790069784755342
F-0.1386744292942681
F-2.6827317360651564
F-2.4557917027092335
F-2.208964939172527
tp1685
a(tag20
(g54
g22
Ntp1686
Rp1687
(lp1688
I1
aI681289502
ababag20
(g47
g22
Ntp1689
Rp1690
(lp1691
(F1.0747323608962054
F5.039318712499478
F1.8556436486841
F-2.48389269658234
F-2.0727100322575898
F-3.715723408562617
tp1692
a(F0.24377796610983044
F-0.039293745770809824
F0.014264577225397562
F-0.9859400899068365
F-1.611287424095797
F-0.28419935588453527
tp1693
a(F-0.14751457972944226
F0.9395563929808026
F-0.22350107799559535
F-2.2938148982939146
F-0.5085556466406407
F-2.55631791340605
tp1694
a(tag20
(g54
g22
Ntp1695
Rp1696
(lp1697
I1
aI726781819
ababag20
(g47
g22
Ntp1698
Rp1699
(lp1700
(F1.0854806969318498
F5.038509255659833
F1.8560560127071541
F-2.530276779453718
F-2.145248112838601
F-3.7310038487458423
tp1701
a(F0.22665926089862554
F0.005012356330263092
F0.0025557549106304304
F-1.0575867692331364
F-1.5651581091602524
F-0.3922112923660302
tp1702
a(F-0.5967777817136667
F1.0003951259391715
F-0.28856755583181176
F-0.8621292797373097
F2.492092459086448
F-2.179486254440743
tp1703
a(tag20
(g54
g22
Ntp1704
Rp1705
(lp1706
I1
aI771482408
ababag20
(g47
g22
Ntp1707
Rp1708
(lp1709
(F1.0956442261027481
F5.039852499120176
F1.8558596089730146
F-2.5817236336829468
F-2.2172281103850486
F-3.7521353931300725
tp1710
a(F0.1982767627210236
F0.05069158294082511
F-0.012186474001746985
F-1.0995219502536835
F-1.4411559235070415
F-0.49367560039881114
tp1711
a(F-0.5870414997159566
F0.9076602274390453
F-0.324822968343567
F-0.8855910184501183
F2.6719002907972995
F-2.0557661865267884
tp1712
a(tag20
(g54
g22
Ntp1713
Rp1714
(lp1715
I1
aI819228377
ababag20
(g47
g22
Ntp1716
Rp1717
(lp1718
(F1.1051348966443584
F5.043637158995749
F1.854812850944481
F-2.6396705909974254
F-2.2882582643508314
F-3.780282315543232
tp1719
a(F0.1689289362918756
F0.09503191155430699
F-0.03031344765955125
F-1.1450579154705314
F-1.3014541844450176
F-0.5962661499255926
tp1720
a(F-0.5449562977521327
F0.8043296436359297
F-0.37126014558451154
F-0.8687344287748977
F2.70656524162425
F-1.9016344259426954
tp1721
a(tag20
(g54
g22
Ntp1722
Rp1723
(lp1724
I1
aI870896062
ababag20
(g47
g22
Ntp1725
Rp1726
(lp1727
(F1.1138695267570384
F5.05025529455439
F1.852525814926777
F-2.705877218802178
F-2.3578401037151795
F-3.816981659218114
tp1728
a(F0.1394821785534374
F0.13717098357436425
F-0.052934027639858286
F-1.1891709435193687
F-1.1469627648261043
F-0.6971010816609353
tp1729
a(F-0.48977349494280525
F0.6787713869088086
F-0.41900782189335867
F-0.6864344317599942
F2.7073076070833104
F-1.6450531070912717
tp1730
a(tag20
(g54
g22
Ntp1731
Rp1732
(lp1733
I1
aI927551495
ababag20
(g47
g22
Ntp1734
Rp1735
(lp1736
(F1.1217701312294697
F5.060228331861717
F1.8483790022440698
F-2.7824664435426194
F-2.425313341392628
F-3.864238325502365
tp1737
a(F0.10954548280136565
F0.1730713493992928
F-0.07959043889574256
F-1.2079730838970968
F-0.9675739672289918
F-0.7802686808563435
tp1738
a(F-0.4435293707478141
F0.4521216596058166
F-0.4098472395265131
F0.05191888446252029
F2.8562586245178485
F-0.9840633254083361
tp1739
a(tag20
(g54
g22
Ntp1740
Rp1741
(lp1742
I1
aI990861039
ababag20
(g47
g22
Ntp1743
Rp1744
(lp1745
(F1.1287673601229236
F5.074224207670306
F1.8414275880777011
F-2.871969948113012
F-2.489824516943446
F-3.924647407259732
tp1746
a(F0.07763484224580393
F0.1893846794001195
F-0.10343987576255774
F-1.1347692736492179
F-0.7398741752445251
F-0.7950773262475512
tp1747
a(F-0.3850180782533054
F0.017795653133427524
F-0.2255086386705684
F1.6502314942764496
F2.9924242797562255
F0.43952374702917657
tp1748
a(tag20
(g54
g22
Ntp1749
Rp1750
(lp1751
I2
aI65064637
ababag20
(g47
g22
Ntp1752
Rp1753
(lp1754
(F1.1347980322715947
F5.093032215716407
F1.8302311522201424
F-2.9771447711833954
F-2.550195316325833
F-4.001406216560121
tp1755
a(F0.04749393624280805
F0.17791733945065769
F-0.11602864640649652
F-0.9506839793272814
F-0.4907164553209008
F-0.7165137170417823
tp1756
a(F-0.2189879590610016
F-0.19883193309711053
F-0.045967807797665905
F1.8305754328970822
F1.9440633303285118
F0.9674212609070041
tp1757
a(tag20
(g54
g22
Ntp1758
Rp1759
(lp1760
I2
aI163973546
ababag20
(g47
g22
Ntp1761
Rp1762
(lp1763
(F1.1398078573838786
F5.117433369751366
F1.8127258953157015
F-3.100567133456176
F-2.6048454207912646
F-4.098164350482492
tp1764
a(F0.03397745412117782
F0.21377579068419283
F-0.1733982892886765
F-1.0346641017403915
F-0.38713390217719224
F-0.8456755467793338
tp1765
a(F-0.0005835343410137733
F0.7301655391327103
F-0.8280024413234144
F-2.9853756574988415
F-0.24394513271493543
F-2.864792348165456
tp1766
a(tag20
(g54
g22
Ntp1767
Rp1768
(lp1769
I2
aI311252506
ababag20
(g47
g22
Ntp1770
Rp1771
(lp1772
(F1.1437515970764058
F5.147863066646323
F1.7862392379618017
F-3.2436463653785315
F-2.6516978654863306
F-4.2183600067501015
tp1773
a(F0.030243296387928057
F0.29878509863967084
F-0.29252404146016286
F-1.3692336952022868
F-0.372081113627617
F-1.1959058632857547
tp1774
a(F-0.06621597347747411
F0.6613740875472858
F-1.1571702734984275
F-2.471159000193492
F0.5576007067071643
F-2.8940619922830257
tp1775
a(tag20
(g54
g22
Ntp1776
Rp1777
(lp1778
I2
aI427453271
ababag20
(g47
g22
Ntp1779
Rp1780
(lp1781
(F1.1465935611020326
F5.18380016786282
F1.7480100652491506
F-3.404990113032274
F-2.6881981897575464
F-4.363675509163205
tp1782
a(F0.01945871569414085
F0.3096325928813747
F-0.36403731456314525
F-1.3802014924441586
F-0.25492249069631295
F-1.28443703710409
tp1783
a(F-0.11543076690680727
F-0.42444089324869916
F-0.11281116348596087
F2.0672643882481814
F1.4009781296598844
F1.188614599653811
tp1784
a(tag20
(g54
g22
Ntp1785
Rp1786
(lp1787
I2
aI534505004
ababag20
(g47
g22
Ntp1788
Rp1789
(lp1790
(F1.1483079880515399
F5.223101714600946
F1.6965953245391683
F-3.5786864878174973
F-2.7116052151709122
F-4.531577882458874
tp1791
a(F0.007018964095086863
F0.19859160481667476
F-0.27716572883698054
F-0.8828634723807296
F-0.09622406448912618
F-0.8709958024222033
tp1792
a(F-0.04448843829313631
F-0.7065011321594065
F0.7798694061837989
F3.079439969131926
F0.604120877778474
F2.8305378867373925
tp1793
a(tag20
(g54
g22
Ntp1794
Rp1795
(lp1796
I2
aI673102174
ababag20
(g47
g22
Ntp1797
Rp1798
(lp1799
(F1.1488793143663034
F5.262016132513188
F1.6337911650940384
F-3.7542146420994764
F-2.7196756429001305
F-4.713294887021096
tp1800
a(F0.0
F0.0
F0.0
F0.0
F0.0
F0.0
tp1801
a(F-0.009740377336702653
F-0.6634406721844391
F1.0707299760263909
F2.9925288083904804
F0.1375903915500728
F3.0980407294278827
tp1802
a(tag20
(g54
g22
Ntp1803
Rp1804
(lp1805
I3
aI15608992
ababag20
(g47
g22
Ntp1806
Rp1807
(lp1808
g1800
a(lp1809
I0
aI0
aI0
aI0
aI0
aI0
aa(lp1810
a(lp1811
ag20
(g54
g22
Ntp1812
Rp1813
(lp1814
I3
aI515608992
ababaaba(lp1815
a(lp1816
ag20
(g54
g22
Ntp1817
Rp1818
(lp1819
I0
aI0
ababsS'move'
p1820
g20
(g21
g22
Ntp1821
Rp1822
(lp1823
g20
(g26
g22
Ntp1824
Rp1825
(lp1826
g20
(g30
g22
Ntp1827
Rp1828
(lp1829
I0
ag20
(g34
g22
Ntp1830
Rp1831
(lp1832
I0
aI0
abag38
aba(lp1833
g40
ag41
ag42
ag43
ag44
ag45
aa(lp1834
g20
(g47
g22
Ntp1835
Rp1836
(lp1837
(F1.1488793143663034
F5.262016132513188
F1.6337911650940384
F-3.7542146420994764
F-2.7196756429001305
F-4.713294887021096
tp1838
a(F0.0
F0.0
F0.0
F0.0
F0.0
F0.0
tp1839
a(F0.0
F0.0
F0.0
F0.0
F0.0
F0.0
tp1840
a(tag20
(g54
g22
Ntp1841
Rp1842
(lp1843
I0
aI0
ababag20
(g47
g22
Ntp1844
Rp1845
(lp1846
(F1.163693799641871
F5.242018160803656
F1.6689198378261456
F-3.6772907595628146
F-2.7329636054460393
F-4.628764746377054
tp1847
a(F0.11464759672770444
F-0.16342545950942616
F0.27031891077154874
F0.63290824112581
F-0.08660563251709974
F0.6840548715376162
tp1848
a(F0.4241431380162738
F-0.6982080843284214
F0.9834385318468262
F2.7477734522501382
F-0.14505180935142217
F2.8536059992563176
tp1849
a(tag20
(g54
g22
Ntp1850
Rp1851
(lp1852
I0
aI173460213
ababag20
(g47
g22
Ntp1853
Rp1854
(lp1855
(F1.1784157050165678
F5.220372376943894
F1.703514295587397
F-3.5931529393247192
F-2.7428477484389466
F-4.538647381807206
tp1856
a(F0.15989065832735366
F-0.2446722722299926
F0.36905023208585297
F0.9565526995536977
F-0.0855295269277216
F1.0082135017253189
tp1857
a(F0.3451755873677685
F-0.7142445091222217
F0.667211445486046
F2.895025054601187
F0.23894148217877284
F2.748717661114307
tp1858
a(tag20
(g54
g22
Ntp1859
Rp1860
(lp1861
I0
aI275774161
ababag20
(g47
g22
Ntp1862
Rp1863
(lp1864
(F1.1930344328432017
F5.1972853323243795
F1.7367574395794305
F-3.5024979746762783
F-2.7490356931275746
F-4.444262472595207
tp1865
a(F0.18762565434995254
F-0.3046394534165921
F0.41303036807182814
F1.2044338384065638
F-0.05292074379005211
F1.233651885586425
tp1866
a(F0.3011164691545548
F-0.6892168767746694
F0.33490546214336236
F2.9172224198153187
F0.5525654544608738
F2.5153410488888905
tp1867
a(tag20
(g54
g22
Ntp1868
Rp1869
(lp1870
I0
aI358886214
ababag20
(g47
g22
Ntp1871
Rp1872
(lp1873
(F1.2075397077741385
F5.173165833691051
F1.767758822876508
F-3.4065929811964915
F-2.7513194973946136
F-4.347371037209444
tp1874
a(F0.2092146379827039
F-0.35282503224788336
F0.42581533121116283
F1.4158420619724383
F-0.0026335338424327472
F1.4073687573963103
tp1875
a(F0.2848080592771438
F-0.616376490118578
F-0.007675287085923368
F2.824357464045114
F0.8310028188952611
F2.1876755421237966
tp1876
a(tag20
(g54
g22
Ntp1877
Rp1878
(lp1879
I0
aI431645594
ababag20
(g47
g22
Ntp1880
Rp1881
(lp1882
(F1.2219219235765337
F5.148602180364516
F1.7956967196535856
F-3.307224977292546
F-2.7496045944214687
F-4.250005673890511
tp1883
a(F0.22869035600227822
F-0.3903496971539343
F0.4156373368620474
F1.598693482509117
F0.06057677870203759
F1.542306952647253
tp1884
a(F0.3067592795272579
F-0.5164328960765457
F-0.31606385890075417
F2.7141440297981343
F1.0986335583230127
F1.888868446800879
tp1885
a(tag20
(g54
g22
Ntp1886
Rp1887
(lp1888
I0
aI497296900
ababag20
(g47
g22
Ntp1889
Rp1890
(lp1891
(F1.2361721734046593
F5.1242919955915545
F1.8199578015762938
F-3.206538130422298
F-2.7439219676211613
F-4.154238247561393
tp1892
a(F0.24830998169026203
F-0.4170274857719018
F0.388428371142204
F1.7550151221433454
F0.1344705044193255
F1.645641450398668
tp1893
a(F0.34954983584200366
F-0.36641269626788286
F-0.6046596677578896
F2.489055541363228
F1.3787002968297528
F1.5415151243446592
tp1894
a(tag20
(g54
g22
Ntp1895
Rp1896
(lp1897
I0
aI557093773
ababag20
(g47
g22
Ntp1898
Rp1899
(lp1900
(F1.2502822755257164
F5.10093936838641
F1.8402308374212175
F-3.1067812946954607
F-2.734422216011959
F-4.061936534481774
tp1901
a(F0.2599878267039845
F-0.41790609376475096
F0.3382472688289433
F1.8196335775964367
F0.20941256715491852
F1.6634523073301688
tp1902
a(F0.062187153369990054
F0.3557087507784507
F-1.2181170089974107
F-0.24381484918486643
F1.3151375235250877
F-0.973650063611469
tp1903
a(tag20
(g54
g22
Ntp1904
Rp1905
(lp1906
I0
aI611718666
ababag20
(g47
g22
Ntp1907
Rp1908
(lp1909
(F1.2642447961707914
F5.079152321980368
F1.8565249789232228
F-3.010036946295426
F-2.7213534930524355
F-3.9745773516223886
tp1910
a(F0.2637709820616849
F-0.3945795537346198
F0.27391081342118606
F1.7925222108252397
F0.2796110320717246
F1.602454227749862
tp1911
a(F0.0799405781299787
F0.5213443463855977
F-1.194810031312362
F-0.7798763536364142
F1.3179999288891695
F-1.318702057056107
tp1912
a(tag20
(g54
g22
Ntp1913
Rp1914
(lp1915
I0
aI665078623
ababag20
(g47
g22
Ntp1916
Rp1917
(lp1918
(F1.278053068702767
F5.059372521724495
F1.8691171165457
F-2.9180082420078604
F-2.7050299784615324
F-3.893156499287192
tp1919
a(F0.2629706817332855
F-0.3573582053434698
F0.210235391615068
F1.7063055442427775
F0.3403774355230801
F1.4980637598740794
tp1920
a(F-0.11127320095303175
F0.9001647693139994
F-1.2344440891636808
F-2.5164046316450093
F0.9987744224325049
F-2.669251955180322
tp1921
a(tag20
(g54
g22
Ntp1922
Rp1923
(lp1924
I0
aI717013765
ababag20
(g47
g22
Ntp1925
Rp1926
(lp1927
(F1.291701206698988
F5.041851681304579
F1.8784590923961562
F-2.831909407927493
F-2.685798909703625
F-3.818195478252016
tp1928
a(F0.25620775070082114
F-0.30901472358861076
F0.15097224373534857
F1.5638072391611377
F0.3871054883881514
F1.3541020128638612
tp1929
a(F-0.14572106337228402
F0.9383861581592772
F-1.021240367587645
F-2.9010161313814846
F0.7801559008463116
F-2.805597117967347
tp1930
a(tag20
(g54
g22
Ntp1931
Rp1932
(lp1933
I0
aI769493273
ababag20
(g47
g22
Ntp1934
Rp1935
(lp1936
(F1.3051841095154357
F5.026668685167853
F1.8850807484166068
F-2.752459953457577
F-2.6640124009266484
F-3.749815481034863
tp1937
a(F0.25731919955920823
F-0.2691440280176403
F0.10562777061884815
F1.457746539349164
F0.4403477180547781
F1.2503956196269397
tp1938
a(F0.19079932054729581
F0.5768355528082161
F-0.7027629654436699
F-1.1229630917023448
F1.251042359792564
F-1.12957140464935
tp1939
a(tag20
(g54
g22
Ntp1940
Rp1941
(lp1942
I0
aI822922763
ababag20
(g47
g22
Ntp1943
Rp1944
(lp1945
(F1.3184974608613398
F5.013770015479052
F1.8895131155912182
F-2.6799518284055557
F-2.6400070780735048
F-3.6878408813828996
tp1946
a(F0.26042140827705235
F-0.23286115376928404
F0.07048972833026959
F1.3596517356542015
F0.49142802401626134
F1.160824114132978
tp1947
a(F-0.07353905382791145
F0.8370924485490246
F-0.662851966373235
F-2.7109551764665243
F0.7282682180898615
F-2.368549836831643
tp1948
a(tag20
(g54
g22
Ntp1949
Rp1950
(lp1951
I0
aI873681103
ababag20
(g47
g22
Ntp1952
Rp1953
(lp1954
(F1.3316377218999347
F5.003015893746529
F1.8922400548819347
F-2.6143502704016774
F-2.6140917266695123
F-3.6319022483571484
tp1955
a(F0.2555229263358423
F-0.19144852918638505
F0.04080501025060559
F1.219482000061629
F0.5232424957738655
F1.0409325968639824
tp1956
a(F-0.11866538102080838
F0.7890759084080652
F-0.5031525612505381
F-2.792450012657992
F0.5214949181645044
F-2.3389693729883407
tp1957
a(tag20
(g54
g22
Ntp1958
Rp1959
(lp1960
I0
aI924503242
ababag20
(g47
g22
Ntp1961
Rp1962
(lp1963
(F1.3446021201762972
F4.9942206708584225
F1.8936753490884721
F-2.5553972350623466
F-2.586541504543795
F-3.5815222443128283
tp1964
a(F0.2549317358088581
F-0.15647742147850457
F0.018830554520451653
F1.1044348221792308
F0.5595863315454801
F0.9469368326583035
tp1965
a(F0.09659832143810249
F0.5866374048977283
F-0.3612083014661837
F-1.7311212962302074
F0.9115913669118006
F-1.3562264598997607
tp1966
a(tag20
(g54
g22
Ntp1967
Rp1968
(lp1969
I0
aI975849025
ababag20
(g47
g22
Ntp1970
Rp1971
(lp1972
(F1.3573886350749857
F4.987182793962605
F1.8941576345191606
F-2.5026998130384275
F-2.5575967550770855
F-3.536179093379301
tp1973
a(F0.25223574699845797
F-0.12451893798288455
F0.002873654174241267
F0.9899920625328253
F0.5865951814570347
F0.8564691459403191
tp1974
a(F-0.20399703386879645
F0.6808949639604371
F-0.27145165677410943
F-2.8090807675207525
F0.15828928211411364
F-2.232869889073398
tp1975
a(tag20
(g54
g22
Ntp1976
Rp1977
(lp1978
I1
aI25530187
ababag20
(g47
g22
Ntp1979
Rp1980
(lp1981
(F1.3699959801190786
F4.9817042876966635
F1.8939555749840764
F-2.455797439558707
F-2.527464628525737
F-3.4953490858412795
tp1982
a(F0.261855940734033
F-0.09934464524022484
F-0.00952493565594322
F0.9224751979968269
F0.6418725213656451
F0.8098579545625706
tp1983
a(F0.6151566009442542
F0.33485878817514403
F-0.23198251543934628
F0.13354659428670637
F2.138311952951146
F0.40032203070153616
tp1984
a(tag20
(g54
g22
Ntp1985
Rp1986
(lp1987
I1
aI76551413
ababag20
(g47
g22
Ntp1988
Rp1989
(lp1990
(F1.382423582320833
F4.977601814559935
F1.8932776317711422
F-2.4142086054917247
F-2.496322159994836
F-3.4585324088174527
tp1991
a(F0.2937718141315746
F-0.08233920625465765
F-0.02017055100529929
F0.9292860673984715
F0.7527930366275498
F0.831974348176971
tp1992
a(F0.814046782303414
F0.4256724066467683
F-0.24103579133183956
F0.1711330542705116
F2.8286909838665837
F0.5936375185509724
tp1993
a(tag20
(g54
g22
Ntp1994
Rp1995
(lp1996
I1
aI121479354
ababag20
(g47
g22
Ntp1997
Rp1998
(lp1999
(F1.3946715588352978
F4.974711834499243
F1.892282943388309
F-2.3774608047496866
F-2.4643199075254394
F-3.4252670040071544
tp2000
a(F0.3186979145790597
F-0.061295342168134676
F-0.028739833732558583
F0.9040093421960917
F0.8489338392884374
F0.8297792344644505
tp2001
a(F0.4068162126069469
F0.6323053116912863
F-0.18272806756635615
F-1.513043521302779
F1.9126444134978458
F-0.770496492875403
tp2002
a(tag20
(g54
g22
Ntp2003
Rp2004
(lp2005
I1
aI160870560
ababag20
(g47
g22
Ntp2006
Rp2007
(lp2008
(F1.4067406912352285
F4.972892039357059
F1.8910914934561809
F-2.345108083290097
F-2.4315856164257394
F-3.395134463492425
tp2009
a(F0.3264164322679637
F-0.03656980388948107
F-0.03393530033877855
F0.8268439882865839
F0.9004794784761374
F0.7831688183728489
tp2010
a(F-0.002596542749403685
F0.6895794018832206
F-0.09302644793554278
F-2.6309241353736645
F0.8191760221426246
F-1.738370052622431
tp2011
a(tag20
(g54
g22
Ntp2012
Rp2013
(lp2014
I1
aI197839811
ababag20
(g47
g22
Ntp2015
Rp2016
(lp2017
(F1.4186323977645872
F4.972020660946198
F1.8897928099293055
F-2.3167400501466933
F-2.398227627604667
F-3.3677609818024585
tp2018
a(F0.32376418299967347
F-0.012313150418344953
F-0.03618378978388398
F0.7285611478359556
F0.9222374977687308
F0.717528623391597
tp2019
a(F-0.1428788973696373
F0.6364381041403417
F-0.029694997569218003
F-2.7429105036406587
F0.3689081296614838
F-1.8507802207388793
tp2020
a(tag20
(g54
g22
Ntp2021
Rp2022
(lp2023
I1
aI234276220
ababag20
(g47
g22
Ntp2024
Rp2025
(lp2026
(F1.4303487039351654
F4.971994713479887
F1.8884530315725074
F-2.291985345286189
F-2.3643379062433496
F-3.3428154620520982
tp2027
a(F0.31524796560797425
F0.009467062714697487
F-0.03621726254738662
F0.6269988477846937
F0.9246366232201784
F0.6475104433627168
tp2028
a(F-0.32042042736089976
F0.551683246376029
F0.027526376025179707
F-2.7946801224109965
F-0.23446916725945346
F-1.9664165479991869
tp2029
a(tag20
(g54
g22
Ntp2030
Rp2031
(lp2032
I1
aI270757480
ababag20
(g47
g22
Ntp2033
Rp2034
(lp2035
(F1.4418922118159465
F4.972727820345665
F1.8871204630209737
F-2.27051171134319
F-2.329994659150647
F-3.320006151512133
tp2036
a(F0.29626790779305867
F0.02750325670950373
F-0.03392231431589261
F0.5178817701473322
F0.892530550545753
F0.566178776911644
tp2037
a(F-0.6746828384954435
F0.40567770256474867
F0.09226233083993506
F-2.9714596623425225
F-1.4342061522768714
F-2.325901261075689
tp2038
a(tag20
(g54
g22
Ntp2039
Rp2040
(lp2041
I1
aI308074491
ababag20
(g47
g22
Ntp2042
Rp2043
(lp2044
(F1.453266068338742
F4.974147994116539
F1.8858298485426623
F-2.252024126190282
F-2.2952645578926845
F-3.2990766641355984
tp2045
a(F0.25960347999628136
F0.039238683038805414
F-0.02895716671639386
F0.39611726656213514
F0.8015093105775607
F0.463500700086411
tp2046
a(F-1.076810044166603
F0.17695315089336403
F0.14503122938317028
F-2.930154455390643
F-2.88602311467274
F-2.6297774041590474
tp2047
a(tag20
(g54
g22
Ntp2048
Rp2049
(lp2050
I1
aI348236489
ababag20
(g47
g22
Ntp2051
Rp2052
(lp2053
(F1.464473932911375
F4.9761955600401695
F1.8846056125789663
F-2.236261942776319
F-2.2602046073044892
F-3.2798018976845014
tp2054
a(F0.2370528936110155
F0.04985727665998563
F-0.02519021584273589
F0.30893323196105715
F0.7500231229032734
F0.39496962468330743
tp2055
a(F0.044541056595822304
F0.2872131785924562
F0.02509112109189541
F-0.9789286461337717
F0.5008339060589267
F-0.4646308578958269
tp2056
a(tag20
(g54
g22
Ntp2057
Rp2058
(lp2059
I1
aI395725933
ababag20
(g47
g22
Ntp2060
Rp2061
(lp2062
(F1.4755199445973766
F4.978821306305374
F1.8834642923435123
F-2.22299562658946
F-2.2248637066129495
F-3.2619841267176715
tp2063
a(F0.21235416915636077
F0.05540767494993271
F-0.021280406289818192
F0.23699863862054849
F0.6857698528678635
F0.3337172643219012
tp2064
a(F-0.9831357794960722
F-0.04546925705754757
F0.12682128775700072
F-1.8696682462662857
F-2.902653824989024
F-1.9226973530429714
tp2065
a(tag20
(g54
g22
Ntp2066
Rp2067
(lp2068
I1
aI442118586
ababag20
(g47
g22
Ntp2069
Rp2070
(lp2071
(F1.4864086890881063
F4.981984884057235
F1.8824163509383922
F-2.212023442910126
F-2.1892839501257906
F-3.2454494116016193
tp2072
a(F0.14991925638235462
F0.04645312641069283
F-0.013982997066584783
F0.14071387390692644
F0.4935632705214573
F0.22291689345984655
tp2073
a(F-0.9581615286550313
F-0.20275044048836163
F0.10384434553494139
F-1.2358984676267684
F-3.0344651140635563
F-1.57870351443153
tp2074
a(tag20
(g54
g22
Ntp2075
Rp2076
(lp2077
I1
aI500468846
ababag20
(g47
g22
Ntp2078
Rp2079
(lp2080
(F1.4971451656618675
F4.985653448522707
F1.881467521497553
F-2.203168291752067
F-2.153501710421429
F-3.230044378936726
tp2081
a(F0.14588447617672537
F0.054304410171403444
F-0.012149547570367888
F0.10480608130620683
F0.4917676405495454
F0.2027166093474903
tp2082
a(F0.8474742447096276
F0.4052384262731027
F-0.05561553723166242
F0.2963239071171615
F2.9689321677861935
F1.044624342052778
tp2083
a(tag20
(g54
g22
Ntp2084
Rp2085
(lp2086
I1
aI595290198
ababag20
(g47
g22
Ntp2087
Rp2088
(lp2089
(F1.5077347542957062
F4.989800517907183
F1.880619799191835
F-2.1962747913365797
F-2.1175485415312094
F-3.21563338005513
tp2090
a(F0.19929770433136046
F0.08344764886914555
F-0.015019227427222944
F0.11148239559462303
F0.6832015513768745
F0.2640403973818649
tp2091
a(F0.7774751574872386
F0.5067019261694314
F-0.027216317877551303
F-0.1776159131066517
F2.885248216585698
F0.789225360244911
tp2092
a(tag20
(g54
g22
Ntp2093
Rp2094
(lp2095
I1
aI654602173
ababag20
(g47
g22
Ntp2096
Rp2097
(lp2098
(F1.5181831830681003
F4.994405021519985
F1.879872170176013
F-2.1912066517898086
F-2.0814519339564774
F-3.2020960079784433
tp2099
a(F0.23595389424942004
F0.11009367622626809
F-0.01582200515716534
F0.0944242206760274
F0.8223165867754971
F0.29849148798587516
tp2100
a(F0.7191600855561175
F0.5933670863848619
F-0.0034444945260009756
F-0.5570976455901411
F2.8082524101995525
F0.6052264655703254
tp2101
a(tag20
(g54
g22
Ntp2102
Rp2103
(lp2104
I1
aI702083176
ababag20
(g47
g22
Ntp2105
Rp2106
(lp2107
(F1.5284964959645075
F4.999450508413411
F1.8792211446315898
F-2.1878443461111545
F-2.0452359481022637
F-3.189324940581048
tp2108
a(F0.26536182757361315
F0.13654960457579934
F-0.015615992970120417
F0.06516756182217553
F0.9393746466250276
F0.32160768735404716
tp2109
a(F0.697503846126448
F0.6886740207259602
F0.014568775351805703
F-0.8746839926946408
F2.8384584763277974
F0.5026976919515983
tp2110
a(tag20
(g54
g22
Ntp2111
Rp2112
(lp2113
I1
aI743032931
ababag20
(g47
g22
Ntp2114
Rp2115
(lp2116
(F1.53868102117637
F5.0049244900836065
F1.878661144115164
F-2.1860830660997257
F-2.0089217481019377
F-3.1772240729548242
tp2117
a(F0.2901099089833461
F0.16319240053667514
F-0.014800046701096534
F0.027888873281440903
F1.04213842763496
F0.3381315312883353
tp2118
a(F0.6430482009153368
F0.7612391687435939
F0.030540570256130543
F-1.1636524242645239
F2.734296587046635
F0.3883654864730989
tp2119
a(tag20
(g54
g22
Ntp2120
Rp2121
(lp2122
I1
aI779553519
ababag20
(g47
g22
Ntp2123
Rp2124
(lp2125
(F1.548743339962429
F5.010817894016004
F1.8781847806011014
F-2.185830941280611
F-1.9725280540759904
F-3.165706901790697
tp2126
a(F0.31022434543796185
F0.18940914153795482
F-0.01357686302462922
F-0.015096722525732211
F1.1297315015252396
F0.34908997620679083
tp2127
a(F0.5498727006241515
F0.7999598764200547
F0.042711913088962404
F-1.403126844215343
F2.4660283877044034
F0.258393140406148
tp2128
a(tag20
(g54
g22
Ntp2129
Rp2130
(lp2131
I1
aI812944431
ababag20
(g47
g22
Ntp2132
Rp2133
(lp2134
(F1.5586902561232963
F5.017124608291971
F1.877783054952959
F-2.1870074948915468
F-1.9360715276061369
F-3.1546951267145698
tp2135
a(F0.3267087465571348
F0.21527552066529385
F-0.012178959695561117
F-0.06193926586247789
F1.2049873763799488
F0.35634808787357686
tp2136
a(F0.5022459904834922
F0.8550752006320733
F0.04676560385463782
F-1.59702624285565
F2.3400820746808977
F0.20379196422165813
tp2137
a(tag20
(g54
g22
Ntp2138
Rp2139
(lp2140
I1
aI844116247
ababag20
(g47
g22
Ntp2141
Rp2142
(lp2143
(F1.5685287661242209
F5.023841100718748
F1.8774454953474518
F-2.1895423103818548
F-1.8995671025273506
F-3.1441174367317988
tp2144
a(F0.3443645849034864
F0.24378079870570707
F-0.010926311701543102
F-0.11279688580525055
F1.285179654460399
F0.36550813773638124
tp2145
a(F0.7062364383331351
F1.0931426648193292
F0.03825058651783931
F-1.8742394609504522
F3.14498132959756
F0.42687175481846285
tp2146
a(tag20
(g54
g22
Ntp2147
Rp2148
(lp2149
I1
aI873544860
ababag20
(g47
g22
Ntp2150
Rp2151
(lp2152
(F1.5782660298873916
F5.030966098837376
F1.8771602507955227
F-2.1933738831043583
F-1.86302827096399
F-3.1339084534951134
tp2153
a(F0.3407948699415318
F0.25747635688411613
F-0.009365923560421381
F-0.15581779397476972
F1.2851796544603986
F0.3537449810029114
tp2154
a(F-0.9564036764792526
F-0.1303096062020033
F0.07137968745581436
F-1.1489936680498272
F-3.1424653438655845
F-1.252759387947403
tp2155
a(tag20
(g54
g22
Ntp2156
Rp2157
(lp2158
I1
aI901019330
ababag20
(g47
g22
Ntp2159
Rp2160
(lp2161
(F1.5879093422633808
F5.038500319654207
F1.8769141509054716
F-2.1984486340836904
F-1.826467332777325
F-3.124007806625495
tp2162
a(F0.31626947368799385
F0.2547557727709462
F-0.0077121331470819355
F-0.18628142380833826
F1.2044951705749258
F0.32210029632128356
tp2163
a(F-0.7180369040181837
F-0.05695794635182814
F0.04196397567857458
F-0.9284206862061873
F-2.365918245514136
F-0.9089195941475404
tp2164
a(tag20
(g54
g22
Ntp2165
Rp2166
(lp2167
I1
aI930493502
ababag20
(g47
g22
Ntp2168
Rp2169
(lp2170
(F1.5974661051823345
F5.046446240048431
F1.8766927400232238
F-2.2047200652532735
F-1.7898956151822893
F-3.114359319540006
tp2171
a(F0.2925105297416344
F0.25030992246796097
F-0.006671674710296499
F-0.2097827664901546
F1.1238436119513122
F0.293553047571025
tp2172
a(F-0.7885062021993258
F-0.21970785269302961
F0.024723593687496583
F-0.5765671016677195
F-2.743313555182427
F-0.9043753302419474
tp2173
a(tag20
(g54
g22
Ntp2174
Rp2175
(lp2176
I1
aI961790154
ababag20
(g47
g22
Ntp2177
Rp2178
(lp2179
(F1.6069438004777103
F5.054807900564534
F1.8764802916438508
F-2.2121480382146435
F-1.7533236681605424
F-3.104910287133342
tp2180
a(F0.2667513964437799
F0.24187505247162377
F-0.006109465499560525
F-0.224959692740002
F1.0329172317820432
F0.26488870294772615
tp2181
a(F-0.7278362664899857
F-0.2736968006612957
F0.008981424386557801
F-0.3259310205180769
F-2.605929966473646
F-0.7851724563553039
tp2182
a(tag20
(g54
g22
Ntp2183
Rp2184
(lp2185
I1
aI995680156
ababag20
(g47
g22
Ntp2186
Rp2187
(lp2188
(F1.6163499633699343
F5.063590736758729
F1.8762598072854684
F-2.220698161104665
F-1.7167614403999945
F-3.095610829152019
tp2189
a(F0.23974397953153892
F0.22974513811955066
F-0.0059556685048439
F-0.2318271599521116
F0.9346676044182883
F0.23655704012645976
tp2190
a(F-0.7187768568175384
F-0.3709308931892477
F-0.0002804141354473072
F-0.05540147431155897
F-2.6526620328796677
F-0.734444752504752
tp2191
a(tag20
(g54
g22
Ntp2192
Rp2193
(lp2194
I2
aI32735302
ababag20
(g47
g22
Ntp2195
Rp2196
(lp2197
(F1.6256921565935143
F5.072801433482611
F1.8760130026921709
F-2.230341270438277
F-1.6802184397819746
F-3.0864133052101996
tp2198
a(F0.20857930560580926
F0.2107095816307959
F-0.0059991521235659775
F-0.22691786809980674
F0.817862439641227
F0.2053445214196919
tp2199
a(F-0.7594459415102479
F-0.5233151351456702
F-0.0016902486563848055
F0.2668172617636812
F-2.8824615912814147
F-0.7478996406881322
tp2200
a(tag20
(g54
g22
Ntp2201
Rp2202
(lp2203
I2
aI74137351
ababag20
(g47
g22
Ntp2204
Rp2205
(lp2206
(F1.6349779451487194
F5.08244779849512
F1.8757202832232516
F-2.2410529969592554
F-1.6437038818817595
F-3.077271779173279
tp2207
a(F0.17046785911462883
F0.18109303460066672
F-0.0059269223286036905
F-0.20558313362379593
F0.6715824489158914
F0.1681174236480959
tp2208
a(F-0.763167274962952
F-0.6475399062324073
F0.003996715048249121
F0.5562372805158814
F-2.955650757804332
F-0.7405070111194547
tp2209
a(tag20
(g54
g22
Ntp2210
Rp2211
(lp2212
I2
aI122623833
ababag20
(g47
g22
Ntp2213
Rp2214
(lp2215
(F1.644214871658147
F5.0925386526421885
F1.8753607094487197
F-2.2528134063705867
F-1.6072268295216876
F-3.068141522079464
tp2216
a(F0.11440276084845137
F0.1271346393707421
F-0.004845348600864943
F-0.15034269627633456
F0.45228600331414803
F0.11339934456162046
tp2217
a(F-0.7884920290909577
F-0.8128500144139947
F0.021870630752327622
F0.8984042829046729
F-3.102439839712705
F-0.7722327016677624
tp2218
a(tag20
(g54
g22
Ntp2219
Rp2220
(lp2221
I2
aI184441224
ababag20
(g47
g22
Ntp2222
Rp2223
(lp2224
(F1.6534104323091459
F5.1030837345598155
F1.8749119532896716
F-2.265606707506663
F-1.5707963260972218
F-3.0589785439383848
tp2225
a(F0.03969137011335265
F-0.019005617612731653
F-0.04021137545184872
F0.04757587074220347
F0.15724724451270275
F0.03955073220219125
tp2226
a(F-0.6886299126698204
F-1.9091237427924832
F-0.6304396266207067
F2.7415323428967993
F-2.7281789227738598
F-0.6861898992618749
tp2227
a(tag20
(g54
g22
Ntp2228
Rp2229
(lp2230
I2
aI300279513
ababag20
(g47
g22
Ntp2231
Rp2232
(lp2233
(F1.653410432439617
F5.088280527695717
F1.8661307081235303
F-2.242022255476422
F-1.5707963260972218
F-3.0589785438079136
tp2234
a(F1.830815443335129e-09
F-0.20314483981651563
F-0.12848540786403673
F0.33163024768055305
F0.0
F1.830815443335129e-09
tp2235
a(F1.6669579593440873e-08
F-1.7812588832693106
F-1.2484694468415733
F3.0297283301107623
F0.0
F1.6669579593440873e-08
tp2236
a(tag20
(g54
g22
Ntp2237
Rp2238
(lp2239
I2
aI414993910
ababag20
(g47
g22
Ntp2240
Rp2241
(lp2242
(F1.6534104325700882
F5.0739506377720325
F1.8568053027941356
F-2.2183669602233436
F-1.5707963260972218
F-3.0589785436774424
tp2243
a(F2.8863880148145e-09
F-0.31102974197838307
F-0.21303176521542175
F0.5240615071938
F0.0
F2.8863880148145e-09
tp2244
a(F1.576977249639873e-08
F-1.4712701434812625
F-1.4201272834890848
F2.8913974269703218
F0.0
F1.576977249639873e-08
tp2245
a(tag20
(g54
g22
Ntp2246
Rp2247
(lp2248
I2
aI466680525
ababag20
(g47
g22
Ntp2249
Rp2250
(lp2251
(F1.6534104327005594
F5.060101709342133
F1.8469394824348828
F-2.1946522114341915
F-1.5707963260972218
F-3.058978543546971
tp2252
a(F3.5402902298246865e-09
F-0.36862205957035143
F-0.2755884593770608
F0.6442105189474062
F0.0
F3.5402902298246865e-09
tp2253
a(F1.57275843046543e-08
F-1.2832794942803791
F-1.6141619144116943
F2.897441408692045
F0.0
F1.57275843046543e-08
tp2254
a(tag20
(g54
g22
Ntp2255
Rp2256
(lp2257
I2
aI506844021
ababag20
(g47
g22
Ntp2258
Rp2259
(lp2260
(F1.6534104328310306
F5.04674059317081
F1.8365368846444534
F-2.1708884974724394
F-1.5707963260972218
F-3.0589785434165
tp2261
a(F4.070471495463112e-09
F-0.40868803632748607
F-0.33334877989494816
F0.7420368162224273
F0.0
F4.070475162026292e-09
tp2262
a(F1.4823867939190335e-08
F-1.010947103764552
F-1.7295031664885165
F2.7404502702530444
F0.0
F1.4824095935286936e-08
tp2263
a(tag20
(g54
g22
Ntp2264
Rp2265
(lp2266
I2
aI540891128
ababag20
(g47
g22
Ntp2267
Rp2268
(lp2269
(F1.6534104329615016
F5.033873377670187
F1.8256010169174368
F-2.1470854142448004
F-1.5707963260972218
F-3.058978543286029
tp2270
a(F4.51017022101496e-09
F-0.4357840297569928
F-0.38760327320058274
F0.8233873029575759
F0.0
F4.510173887578141e-09
tp2271
a(F1.3889896370489719e-08
F-0.7478283294270863
F-1.8244125809453007
F2.5722409103729174
F0.0
F1.3889643381387425e-08
tp2272
a(tag20
(g54
g22
Ntp2273
Rp2274
(lp2275
I2
aI571170792
ababag20
(g47
g22
Ntp2276
Rp2277
(lp2278
(F1.6534104330919728
F5.021505419156238
F1.8141352112272453
F-2.1232516500406593
F-1.5707963260972218
F-3.0589785431555576
tp2279
a(F4.934663004881333e-09
F-0.4578186457048474
F-0.44407149022148795
F0.9018901359263306
F0.0
F4.934663004881333e-09
tp2280
a(F1.6848155458311356e-08
F-0.8452020611327977
F-2.266712356592053
F3.111914417723882
F0.0
F1.6848155458311356e-08
tp2281
a(tag20
(g54
g22
Ntp2282
Rp2283
(lp2284
I2
aI598863003
ababag20
(g47
g22
Ntp2285
Rp2286
(lp2287
(F1.653410433222444
F5.009641377622525
F1.802142578132956
F-2.099394975412657
F-1.5707963260972218
F-3.0589785430250864
tp2288
a(F5.33570033565801e-09
F-0.47445528414956206
F-0.5015176503872704
F0.9759729345368002
F0.0
F5.33570033565801e-09
tp2289
a(F1.4530441981591407e-08
F-0.44447249349708956
F-2.2401504299725645
F2.6846229234684613
F0.0
F1.4530441981591407e-08
tp2290
a(tag20
(g54
g22
Ntp2291
Rp2292
(lp2293
I2
aI624158657
ababag20
(g47
g22
Ntp2294
Rp2295
(lp2296
(F1.6534104333529152
F4.998285257470669
F1.78962596040433
F-2.0755222375321765
F-1.5707963260972218
F-3.0589785428946152
tp2297
a(F5.651233540010804e-09
F-0.4805360212845983
F-0.5537135399970197
F1.0342495612816043
F0.0
F5.651233540010804e-09
tp2298
a(F1.1920117228177414e-08
F-0.05544904882202556
F-2.145091581139916
F2.2005406299648156
F0.0
F1.1920117228177414e-08
tp2299
a(tag20
(g54
g22
Ntp2300
Rp2301
(lp2302
I2
aI647822390
ababag20
(g47
g22
Ntp2303
Rp2304
(lp2305
(F1.6534104334833863
F4.987440452647517
F1.7765878861042836
F-2.051639358408978
F-1.5707963260972218
F-3.058978542764144
tp2306
a(F5.938825591674465e-09
F-0.48164045490788565
F-0.6055883439806634
F1.0872287988885536
F0.0
F5.938830772791557e-09
tp2307
a(F1.3638539649551122e-08
F-0.042211517491810756
F-2.465340626049127
F2.5075521435395696
F0.0
F1.3639011020600128e-08
tp2308
a(tag20
(g54
g22
Ntp2309
Rp2310
(lp2311
I2
aI670360492
ababag20
(g47
g22
Ntp2312
Rp2313
(lp2314
(F1.6534104336138573
F4.977109795663582
F1.7630305210104948
F-2.027751336331254
F-1.5707963260972218
F-3.058978542633673
tp2315
a(F6.035739928961448e-09
F-0.4660665279617964
F-0.6390448540979747
F1.1051113820597709
F0.0
F6.035745110078539e-09
tp2316
a(F-4.902829519953329e-09
F1.4837483224987076
F-0.5882572764962101
F-0.8954910460015424
F0.0
F-4.9033088516896985e-09
tp2317
a(tag20
(g54
g22
Ntp2318
Rp2319
(lp2320
I2
aI691788748
ababag20
(g47
g22
Ntp2321
Rp2322
(lp2323
(F1.6534104337443285
F4.967295610004724
F1.7489556201971224
F-2.0038622498590235
F-1.5707963260972218
F-3.0589785425032017
tp2324
a(F5.848339325703235e-09
F-0.42856821284832897
F-0.6422082858790648
F1.0707764987273989
F0.0
F5.848339325703235e-09
tp2325
a(F-1.2043042494395217e-08
F1.9228997506643748
F0.28628483547200045
F-2.209184586136833
F0.0
F-1.2043042494395217e-08
tp2326
a(tag20
(g54
g22
Ntp2327
Rp2328
(lp2329
I2
aI713596662
ababag20
(g47
g22
Ntp2330
Rp2331
(lp2332
(F1.6534104338747997
F4.957999765497695
F1.7343644785334247
F-1.9799752636882963
F-1.5707963260972218
F-3.0589785423727305
tp2333
a(F5.562077414508426e-09
F-0.3855107724609629
F-0.6327176773247272
F1.018228449785699
F0.0
F5.562077414508426e-09
tp2334
a(F-1.2937819488868713e-08
F1.8400196758726093
F0.5363665866691227
F-2.3763862625409446
F0.0
F-1.2937819488868713e-08
tp2335
a(tag20
(g54
g22
Ntp2336
Rp2337
(lp2338
I2
aI736430527
ababag20
(g47
g22
Ntp2339
Rp2340
(lp2341
(F1.6534104340052709
F4.9492237362489115
F1.7192578797875735
F-1.9560926356936617
F-1.5707963260972218
F-3.0589785422422593
tp2342
a(F5.24406868526279e-09
F-0.34259992875488365
F-0.6172106437086131
F0.9598105724635146
F0.0
F5.24406868526279e-09
tp2343
a(F-1.3343031374255677e-08
F1.711625868301474
F0.7397372547642114
F-2.4513631230657276
F0.0
F-1.3343031374255677e-08
tp2344
a(tag20
(g54
g22
Ntp2345
Rp2346
(lp2347
I2
aI760546212
ababag20
(g47
g22
Ntp2348
Rp2349
(lp2350
(F1.653410434135742
F4.940968660843414
F1.7036360439501148
F-1.9322157244507046
F-1.5707963260972218
F-3.058978542111788
tp2351
a(F4.900885849905334e-09
F-0.30063865693882785
F-0.596137193804356
F0.8967758507431925
F0.0
F4.900885849905334e-09
tp2352
a(F-1.3282216114766655e-08
F1.549135428512843
F0.8899781211551325
F-2.439113549668625
F0.0
F-1.3282216114766655e-08
tp2353
a(tag20
(g54
g22
Ntp2354
Rp2355
(lp2356
I2
aI786240057
ababag20
(g47
g22
Ntp2357
Rp2358
(lp2359
(F1.6534104342662133
F4.933235404566626
F1.687498572310753
F-1.9083449965345554
F-1.5707963260972218
F-3.058978541981317
tp2360
a(F4.51331348111165e-09
F-0.2588967286262577
F-0.5667543399134279
F0.8256510685396783
F0.0
F4.51331348111165e-09
tp2361
a(F-1.4534618292495678e-08
F1.4562418449813899
F1.2095422660404247
F-2.6657841110223206
F0.0
F-1.4534618292495678e-08
tp2362
a(tag20
(g54
g22
Ntp2363
Rp2364
(lp2365
I2
aI813859697
ababag20
(g47
g22
Ntp2366
Rp2367
(lp2368
(F1.6534104343966844
F4.926024623494687
F1.670844389732604
F-1.8844800328844675
F-1.5707963260972218
F-3.0589785418508457
tp2369
a(F4.336650999811435e-09
F-0.23091533466305258
F-0.5622433086064139
F0.7931586432694517
F0.0
F4.336654718848535e-09
tp2370
a(F2.252069229787177e-09
F0.45779241917305996
F-0.8648015468132488
F0.4070091276401806
F0.0
F2.2523164444449164e-09
tp2371
a(tag20
(g54
g22
Ntp2372
Rp2373
(lp2374
I2
aI844182290
ababag20
(g47
g22
Ntp2375
Rp2376
(lp2377
(F1.6534104345271554
F4.919336830389567
F1.6536716834671996
F-1.860619533513944
F-1.5707963260972218
F-3.0589785417203745
tp2378
a(F4.1053485682974325e-09
F-0.20273231941527797
F-0.5480186119276936
F0.7507509313429543
F0.0
F4.105352287334532e-09
tp2379
a(F-1.6618582185457173e-08
F1.3345963579831124
F1.7067514421917758
F-3.041347800175037
F0.0
F-1.6618815252259523e-08
tp2380
a(tag20
(g54
g22
Ntp2381
Rp2382
(lp2383
I2
aI874034722
ababag20
(g47
g22
Ntp2384
Rp2385
(lp2386
(F1.6534104346576266
F4.913172462433428
F1.6359778377382173
F-1.8367613198288228
F-1.5707963260972218
F-3.0589785415899033
tp2387
a(F3.5531549397665286e-09
F-0.16131882754904625
F-0.4884276145959933
F0.6497464421450297
F0.0
F3.5531549397665286e-09
tp2388
a(F-1.5530520158707698e-08
F1.088574746961376
F1.7508430534096644
F-2.839417800370511
F0.0
F-1.5530520158707698e-08
tp2389
a(tag20
(g54
g22
Ntp2390
Rp2391
(lp2392
I2
aI908010121
ababag20
(g47
g22
Ntp2393
Rp2394
(lp2395
(F1.6534104347880978
F4.907531950943395
F1.6177593631882174
F-1.81290233378879
F-1.5707963260972218
F-3.058978541459432
tp2396
a(F2.9067241159033006e-09
F-0.1205443611743576
F-0.4110480557608839
F0.5315924169352437
F0.0
F2.9067241159033006e-09
tp2397
a(F-1.576990269947136e-08
F0.90635116321457
F1.9754377007585717
F-2.881788863973046
F0.0
F-1.576990269947136e-08
tp2398
a(tag20
(g54
g22
Ntp2399
Rp2400
(lp2401
I2
aI947956681
ababag20
(g47
g22
Ntp2402
Rp2403
(lp2404
(F1.653410434918569
F4.902415793324905
F1.5990118201255823
F-1.7890386331076646
F-1.5707963260972218
F-3.058978541328961
tp2405
a(F1.8882662484650437e-09
F-0.07157135996055089
F-0.2738450558411176
F0.3454164158016696
F0.0
F1.8882662484650437e-09
tp2406
a(F-1.6752370382972456e-08
F0.7197740607628095
F2.3431576188665053
F-3.062931679629396
F0.0
F-1.6752370382972456e-08
tp2407
a(tag20
(g54
g22
Ntp2408
Rp2409
(lp2410
I2
aI999175987
ababag20
(g47
g22
Ntp2411
Rp2412
(lp2413
(F1.6534104350490402
F4.897824627651199
F1.5797297343220862
F-1.7651653816304633
F-1.5707963260972218
F-3.0589785411984898
tp2414
a(F-0.11459714768599806
F-0.06924725664977538
F-0.040318659087560556
F0.10956591581728498
F5.914878002399011e-12
F-0.114597147686001
tp2415
a(F-2.5234363346523314
F-0.5723416180277947
F3.1124591216693265
F-2.5401175018810025
F1.30245980878032e-10
F-2.5234363346523963
tp2416
a(tag20
(g54
g22
Ntp2417
Rp2418
(lp2419
I3
aI105316778
ababag20
(g47
g22
Ntp2420
Rp2421
(lp2422
(F1.6361035751874813
F4.890632958932689
F1.5873585236814138
F-1.7656025022592061
F-1.5707963260963285
F-3.076285401060049
tp2423
a(F-0.31382996234061333
F-0.1258226055962628
F0.13230988422175033
F-0.0064872784063509745
F1.3795752225416527e-11
F-0.3138299623406138
tp2424
a(F-2.8395169222402257
F-1.0260737096257126
F1.0495083487604424
F-0.02343463714735662
F6.595894873322266e-11
F-2.8395169222400423
tp2425
a(tag20
(g54
g22
Ntp2426
Rp2427
(lp2428
I3
aI180828517
ababag20
(g47
g22
Ntp2429
Rp2430
(lp2431
(F1.6186851665918307
F4.883795867687439
F1.594509731985052
F-1.765916619305426
F-1.5707963260956395
F-3.0937038096556995
tp2432
a(F-0.45442134707864945
F-0.17254212294438867
F0.17901889297364298
F-0.0064767697116347184
F1.486633015433363e-11
F-0.45442134707865345
tp2433
a(F-2.8679304312528036
F-0.8270273287861716
F0.790688039128949
F0.03633929166875437
F-4.589338522364377e-11
F-2.867930431253266
tp2434
a(tag20
(g54
g22
Ntp2435
Rp2436
(lp2437
I3
aI224542221
ababag20
(g47
g22
Ntp2438
Rp2439
(lp2440
(F1.6011641066748634
F4.877318616229079
F1.6011849885605158
F-1.7661146244102786
F-1.5707963260951598
F-3.111224869572667
tp2441
a(F-0.5565445012466522
F-0.1989096652719643
F0.20330828668931744
F-0.004398621028049643
F1.1547874802866956e-11
F-0.5565445012466511
tp2442
a(F-2.9056737627292137
F-0.6439504561637432
F0.5577799681227478
F0.08617049008252178
F-1.5250046238985522e-10
F-2.905673762728326
tp2443
a(tag20
(g54
g22
Ntp2444
Rp2445
(lp2446
I3
aI258871859
ababag20
(g47
g22
Ntp2447
Rp2448
(lp2449
(F1.5835497058465937
F4.871206414130709
F1.6073857280173287
F-1.766203161756396
F-1.5707963260948932
F-3.1288392704009365
tp2450
a(F-0.6405186728565392
F-0.21461021653355883
F0.21584637057430878
F-0.0012361535924633527
F5.5155901436416715e-12
F-0.6405186728565273
tp2451
a(F-2.733871796230992
F-0.3954732631775711
F0.26579450401426347
F0.12967876108288626
F-2.6099105997416876e-10
F-2.733871796231237
tp2452
a(tag20
(g54
g22
Ntp2453
Rp2454
(lp2455
I3
aI288097099
ababag20
(g47
g22
Ntp2456
Rp2457
(lp2458
(F1.5658516570111416
F4.865464372443907
F1.6131132325754225
F-1.766188624615299
F-1.5707963260948434
F-3.1465373192363884
tp2459
a(F-0.7100999597664328
F-0.2220599321163916
F0.2194542570344884
F0.0026056755789919165
F-2.596938587554509e-12
F-0.7100999597664286
tp2460
a(F-2.5396351227670158
F-0.15831181938940658
F-0.005418072117707265
F0.16372989328598087
F-3.5993242267513503e-10
F-2.539635122767353
tp2461
a(tag20
(g54
g22
Ntp2462
Rp2463
(lp2464
I3
aI314187894
ababag20
(g47
g22
Ntp2465
Rp2466
(lp2467
(F1.548080010906362
F4.860097466055685
F1.6183686479238717
F-1.7660771335630854
F-1.5707963260950135
F-3.164308965341168
tp2468
a(F-0.7726091491895881
F-0.22433547253799993
F0.21744504228168904
F0.006890430797109906
F-1.2391573427445516e-11
F-0.7726091491895881
tp2469
a(F-2.6635535407405158
F-0.025550653139032282
F-0.16824970965316768
F0.19380036465147293
F-4.585641603226734e-10
F-2.6635535407405158
tp2470
a(tag20
(g54
g22
Ntp2471
Rp2472
(lp2473
I3
aI338142951
ababag20
(g47
g22
Ntp2474
Rp2475
(lp2476
(F1.5302451482755968
F4.855110497074905
F1.6231529973347458
F-1.7658745139806964
F-1.570796326095406
F-3.182143827971933
tp2477
a(F-0.8323185316537312
F-0.2231207648631473
F0.21161790470735936
F0.011502860738140563
F-2.3692143091139387e-11
F-0.8323185316537365
tp2478
a(F-2.6972786115904346
F0.1405237020614029
F-0.3617234681473735
F0.22119976795705198
F-5.594020069069177e-10
F-2.6972786115909306
tp2479
a(tag20
(g54
g22
Ntp2480
Rp2481
(lp2482
I3
aI360343735
ababag20
(g47
g22
Ntp2483
Rp2484
(lp2485
(F1.512357748994023
F4.8505080594888845
F1.627467194139339
F-1.7655862731867578
F-1.570796326096023
F-3.200031227253507
tp2486
a(F-0.8877867211639432
F-0.21823968766165702
F0.2018994429985404
F0.01634024528382839
F-3.633617966652952e-11
F-0.8877867211639542
tp2487
a(F-2.6245411883928345
F0.333997686378484
F-0.5778144120805763
F0.24381672751095831
F-6.572704809517219e-10
F-2.6245411883928678
tp2488
a(tag20
(g54
g22
Ntp2489
Rp2490
(lp2491
I3
aI381111806
ababag20
(g47
g22
Ntp2492
Rp2493
(lp2494
(F1.4944287583187787
F4.8462945053438995
F1.6313120526640912
F-1.7652175775539947
F-1.5707963260968656
F-3.2179602179287516
tp2495
a(F-0.9375989057300353
F-0.20964442724337803
F0.18835629739417364
F0.021288130504058513
F-5.0081841374453076e-11
F-0.937598905730041
tp2496
a(F-2.435389872839066
F0.5455609012711874
F-0.8052672821751382
F0.25970638256273
F-7.426503935482275e-10
F-2.435389872838475
tp2497
a(tag20
(g54
g22
Ntp2498
Rp2499
(lp2500
I3
aI400721758
ababag20
(g47
g22
Ntp2501
Rp2502
(lp2503
(F1.4764693504784077
F4.8424739127108785
F1.634688297714834
F-1.7647732299591805
F-1.5707963260979345
F-3.2359196257691227
tp2504
a(F-0.980426199115358
F-0.19742522521706404
F0.17119987633801426
F0.026225349562855056
F-6.462066312630139e-11
F-0.980426199115358
tp2505
a(F-2.1280424128169724
F0.7630849644142517
F-1.030396400532562
F0.2673114375438449
F-8.102628841901736e-10
F-2.1280424128169724
tp2506
a(tag20
(g54
g22
Ntp2507
Rp2508
(lp2509
I3
aI419411609
ababag20
(g47
g22
Ntp2510
Rp2511
(lp2512
(F1.4584908898620392
F4.839050055699898
F1.6375965726902288
F-1.7642576479110657
F-1.57079632609923
F-3.253898086385491
tp2513
a(F-1.0202354343085003
F-0.1826786527211131
F0.1514823203005266
F0.031196333130961568
F-8.002777642172533e-11
F-1.0202354343085003
tp2514
a(F-2.3026464763357803
F0.8791832697861777
F-1.1650694089645286
F0.28588614070977214
F-9.050495500616777e-10
F-2.3026464763357803
tp2515
a(tag20
(g54
g22
Ntp2516
Rp2517
(lp2518
I3
aI437391243
ababag20
(g47
g22
Ntp2519
Rp2520
(lp2521
(F1.4405048901110347
F4.836026376783741
F1.6400374463981446
F-1.7636748426903113
F-1.5707963261007512
F-3.2718840861364957
tp2522
a(F-1.0563007570880487
F-0.16557714702800672
F0.12944859725462962
F0.03612855050741168
F-9.604240392240542e-11
F-1.0563007570880487
tp2523
a(F-1.8514795612242072
F1.0981603214672149
F-1.3814116427841867
F0.2832513225099963
F-9.437292728660978e-10
F-1.8514795612242072
tp2524
a(tag20
(g54
g22
Ntp2525
Rp2526
(lp2527
I3
aI454676563
ababag20
(g47
g22
Ntp2528
Rp2529
(lp2530
(F1.4225229714544192
F4.8334059616819545
F1.6420114186419936
F-1.7630283998198917
F-1.5707963261024969
F-3.289866004793111
tp2531
a(F-1.0883077263285736
F-0.14618483005620247
F0.10518355265549104
F0.041001278155211734
F-1.125546715940761e-10
F-1.088307726328567
tp2532
a(F-1.9664583030615512
F1.2157727796814206
F-1.5137200427714816
F0.29794726433800023
F-1.026282775259005e-09
F-1.9664583030607314
tp2533
a(tag20
(g54
g22
Ntp2534
Rp2535
(lp2536
I3
aI471449718
ababag20
(g47
g22
Ntp2537
Rp2538
(lp2539
(F1.4045568166632654
F4.831191517042674
F1.6435189246374546
F-1.7623214611636322
F-1.5707963261044655
F-3.307832159584265
tp2540
a(F-1.121284538744055
F-0.12536246772567597
F0.07937365841122265
F0.045988810089719
F-1.2994038329180902e-10
F-1.1212845387440413
tp2541
a(F-2.0899381231209024
F1.3463513900000157
F-1.661891326501577
F0.31553993780761586
F-1.112620459344066e-09
F-2.0899381231208745
tp2542
a(tag20
(g54
g22
Ntp2543
Rp2544
(lp2545
I3
aI487715305
ababag20
(g47
g22
Ntp2546
Rp2547
(lp2548
(F1.3866181260272763
F4.82938535114004
F1.6445603383134761
F-1.7615567089246342
F-1.5707963261066542
F-3.3257708502202536
tp2549
a(F-1.1552605815525387
F-0.10301295720745313
F0.05188670212956687
F0.0511262558742171
F-1.4820727764519196e-10
F-1.1552605815525387
tp2550
a(F-2.2226233846812895
F1.4913756379068595
F-1.8279443364575314
F0.33656869991807536
F-1.2063417682821541e-09
F-2.2226233846831214
tp2551
a(tag20
(g54
g22
Ntp2552
Rp2553
(lp2554
I3
aI503478390
ababag20
(g47
g22
Ntp2555
Rp2556
(lp2557
(F1.3687185717783263
F4.827989357780989
F1.6451359745446936
F-1.7607363517844823
F-1.5707963261090596
F-3.343670404469204
tp2558
a(F-1.1842857852753126
F-0.07870329422255953
F0.022542886489773463
F0.056160408546400004
F-1.6651190295125553e-10
F-1.18428578527532
tp2559
a(F-1.561315940605466
F1.6881127606117055
F-2.0091949007578616
F0.3210821410306804
F-1.1854206806776325e-09
F-1.5613159406045096
tp2560
a(tag20
(g54
g22
Ntp2561
Rp2562
(lp2563
I3
aI518744506
ababag20
(g47
g22
Ntp2564
Rp2565
(lp2566
(F1.350869752399937
F4.827005003586744
F1.6452460903554795
F-1.7598621133887817
F-1.570796326111678
F-3.3615192238475933
tp2567
a(F-1.2080899295593466
F-0.05258931427555155
F-0.00849354111197898
F0.06108285621448122
F-1.8469382489850317e-10
F-1.208089929559339
tp2568
a(F-1.6298559755615647
F1.8132909708685416
F-2.1521513163648938
F0.3388603463995198
F-1.2522052816777155e-09
F-1.629855975560526
tp2569
a(tag20
(g54
g22
Ntp2570
Rp2571
(lp2572
I3
aI533667402
ababag20
(g47
g22
Ntp2573
Rp2574
(lp2575
(F1.333083147268123
F4.826433318782337
F1.6448908851286073
F-1.7589352233453504
F-1.570796326114505
F-3.379305828979407
tp2576
a(F-1.226210979485379
F-0.025118921698186712
F-0.04072043381263803
F0.06583935634686085
F-2.023803580981577e-10
F-1.226210979485356
tp2577
a(F-0.842858493294013
F1.947659574419073
F-2.2595360537381928
F0.3118764796540754
F-1.167637599816681e-09
F-0.8428584932929392
tp2578
a(tag20
(g54
g22
Ntp2579
Rp2580
(lp2581
I3
aI548245267
ababag20
(g47
g22
Ntp2582
Rp2583
(lp2584
(F1.3153700720674484
F4.826274891592483
F1.6440704998439295
F-1.7579564108587666
F-1.5707963261175355
F-3.397018904180081
tp2585
a(F-1.2201708288549402
F0.0032254238041363355
F-0.07258282587992823
F0.06935740290416104
F-2.1602947181205266e-10
F-1.2201708288549247
tp2586
a(F1.6765120624786494
F1.9674150748094188
F-2.1415062083812475
F0.17409113217831165
F-7.177697405780111e-10
F1.6765120624765184
tp2587
a(tag20
(g54
g22
Ntp2588
Rp2589
(lp2590
I3
aI562619128
ababag20
(g47
g22
Ntp2591
Rp2592
(lp2593
(F1.2977416354164564
F4.826529866305065
F1.642785015364583
F-1.756925901080061
F-1.5707963261207638
F-3.414647340831073
tp2594
a(F-1.1961286431280658
F0.031298390001629366
F-0.10316464633592844
F0.07186625714259795
F-2.2611734202916431e-10
F-1.1961286431280582
tp2595
a(F1.6193541913311964
F1.8811622311118685
F-2.0509893212385797
F0.16982708876894972
F-6.653543021192808e-10
F1.6193541913322236
tp2596
a(tag20
(g54
g22
Ntp2597
Rp2598
(lp2599
I3
aI577211841
ababag20
(g47
g22
Ntp2600
Rp2601
(lp2602
(F1.2802086971190625
F4.827197945025073
F1.6410344497800313
F-1.7558434142036983
F-1.570796326124184
F-3.432180279128467
tp2603
a(F-1.1725601834409036
F0.0585491159400542
F-0.1329186307500237
F0.07436951559845
F-2.35588736591707e-10
F-1.172560183440896
tp2604
a(F1.5651449061186653
F1.8009972602445643
F-1.9693724363511136
F0.16837517478656416
F-6.145968810268392e-10
F1.5651449061176523
tp2605
a(tag20
(g54
g22
Ntp2606
Rp2607
(lp2608
I3
aI592017225
ababag20
(g47
g22
Ntp2609
Rp2610
(lp2611
(F1.2627818284334422
F4.82827839310317
F1.638818754806707
F-1.7547081672967817
F-1.5707963261277893
F-3.449607147814087
tp2612
a(F-1.143822357972811
F0.08453333788193135
F-0.1610513041331522
F0.0765179670163911
F-2.4322443985944065e-10
F-1.1438223579727966
tp2613
a(F2.248024584338247
F1.6538875013332424
F-1.7715297586582415
F0.11764225555106554
F-4.0222051610431564e-10
F2.248024584340148
tp2614
a(tag20
(g54
g22
Ntp2615
Rp2616
(lp2617
I3
aI607028829
ababag20
(g47
g22
Ntp2618
Rp2619
(lp2620
(F1.2454712747180507
F4.829770048184817
F1.6361378112383107
F-1.7535188787984841
F-1.570796326131573
F-3.466917701529478
tp2621
a(F-1.110182711627778
F0.10904520693595712
F-0.1873701037154717
F0.07832489751809141
F-2.4897541118959974e-10
F-1.1101827116277636
tp2622
a(F2.1326393912538038
F1.5384854070958103
F-1.6560773075619286
F0.11759189877704543
F-3.4709390999557e-10
F2.132639391251946
tp2623
a(tag20
(g54
g22
Ntp2624
Rp2625
(lp2626
I3
aI622392069
ababag20
(g47
g22
Ntp2627
Rp2628
(lp2629
(F1.2282869207765303
F4.831671332789248
F1.6329914234287417
F-1.7522737755819466
F-1.5707963261355276
F-3.4841020554709985
tp2630
a(F-1.0775324023055193
F0.13237627332182636
F-0.21256334289783918
F0.08018707028870056
F-2.5401690252108367e-10
F-1.0775324023055122
tp2631
a(F2.0244217388230195
F1.4323628870598666
F-1.551775365710461
F0.1194124770434887
F-2.951835881918748e-10
F2.024421738823886
tp2632
a(tag20
(g54
g22
Ntp2633
Rp2634
(lp2635
I3
aI638105433
ababag20
(g47
g22
Ntp2636
Rp2637
(lp2638
(F1.2112382591803186
F4.833980270293099
F1.6293793127814833
F-1.750970602427298
F-1.5707963261396451
F-3.50115071706721
tp2639
a(F-1.0458423337505436
F0.15458886607139116
F-0.23672126784888264
F0.08213240246499515
F-2.583736361542297e-10
F-1.045842333750537
tp2640
a(F1.9228585543137788
F1.3346995610974903
F-1.4574916088684589
F0.12279204624121039
F-2.478471477528766e-10
F1.9228585543129308
tp2641
a(tag20
(g54
g22
Ntp2642
Rp2643
(lp2644
I3
aI654167092
ababag20
(g47
g22
Ntp2645
Rp2646
(lp2647
(F1.1943343618009659
F4.836694504162295
F1.625301110209797
F-1.7496066337137302
F-1.5707963261439175
F-3.5180546144465628
tp2648
a(F-1.0101340933747522
F0.17482086535257424
F-0.2585846487777379
F0.08376378408497692
F-2.607885735311379e-10
F-1.0101340933747522
tp2649
a(F2.4124245216242155
F1.127945928539201
F-1.20411649197815
F0.0761705616058617
F-4.837768114859674e-11
F2.4124245216242155
tp2650
a(tag20
(g54
g22
Ntp2651
Rp2652
(lp2653
I3
aI670574919
ababag20
(g47
g22
Ntp2654
Rp2655
(lp2656
(F1.177583854734596
F4.839811320248252
F1.620756347522454
F-1.7481786871014395
F-1.5707963261483366
F-3.5348051215129326
tp2657
a(F-0.9707190090251068
F0.19294353874252018
F-0.2780288012503953
F0.08508526313771184
F-2.6128483614521386e-10
F-0.9707190090251068
tp2658
a(F2.2488915552263196
F1.0158428825736106
F-1.0958123516102436
F0.07996946732467715
F-1.0850407099685055e-11
F2.2488915552263196
tp2659
a(tag20
(g54
g22
Ntp2660
Rp2661
(lp2662
I3
aI687494035
ababag20
(g47
g22
Ntp2663
Rp2664
(lp2665
(F1.160994896749916
F4.843327671941513
F1.6157444476797829
F-1.7466831389413033
F-1.570796326152894
F-3.5513940794976127
tp2666
a(F-0.9328418876889646
F0.20976272585507924
F-0.296280965412563
F0.08651824015854928
F-2.611769798205233e-10
F-0.9328418876889646
tp2667
a(F2.097636568227934
F0.9147222125994587
F-0.999041530210827
F0.08431931602161975
F2.272028030995915e-11
F2.097636568227934
tp2668
a(tag20
(g54
g22
Ntp2669
Rp2670
(lp2671
I3
aI704930334
ababag20
(g47
g22
Ntp2672
Rp2673
(lp2674
(F1.144575161339828
F4.847240207957773
F1.610264713854516
F-1.745115941121755
F-1.570796326157581
F-3.5678138149077006
tp2675
a(F-0.8920931875397635
F0.2242073933178043
F-0.3118428060064078
F0.08763541325932353
F-2.592315003912151e-10
F-0.8920931875397575
tp2676
a(F2.422707358486264
F0.6934326570794038
F-0.7339486077907348
F0.04051594893385923
F1.904831025880477e-10
F2.422707358486913
tp2677
a(tag20
(g54
g22
Ntp2678
Rp2679
(lp2680
I3
aI722889528
ababag20
(g47
g22
Ntp2681
Rp2682
(lp2683
(F1.128331822406257
F4.85154530251851
F1.6043163172211534
F-1.743472639038776
F-1.570796326162389
F-3.5840571538412713
tp2684
a(F-0.8446986031003922
F0.23503132523228742
F-0.3230252666190541
F0.08799394192316802
F-2.5426901580367943e-10
F-0.8446986031003807
tp2685
a(F2.63468501778185
F0.46757043457854597
F-0.4662625343500832
F-0.0013079021140764001
F3.3634924208209917e-10
F2.634685017781821
tp2686
a(tag20
(g54
g22
Ntp2687
Rp2688
(lp2689
I3
aI741562046
ababag20
(g47
g22
Ntp2690
Rp2691
(lp2692
(F1.1122715435593051
F4.856239087681226
F1.5978982833860607
F-1.7417483903562412
F-1.570796326167309
F-3.600117432688223
tp2693
a(F-0.7957442942766085
F0.2432636895377519
F-0.33128511303269714
F0.08802142399640026
F-2.4769163283928186e-10
F-0.7957442942766138
tp2694
a(F2.3654263542074854
F0.37442064611454334
F-0.37840463382230677
F0.003983986023795968
F3.346251824903738e-10
F2.365426354205843
tp2695
a(tag20
(g54
g22
Ntp2696
Rp2697
(lp2698
I3
aI761159917
ababag20
(g47
g22
Ntp2699
Rp2700
(lp2701
(F1.096400470966264
F4.8613174875727685
F1.5910094773582106
F-1.7399379842099718
F-1.5707963261723321
F-3.6159885052812646
tp2702
a(F-0.7460268404508328
F0.24887990758063466
F-0.33659569849386173
F0.08771579137966413
F-2.397013282023528e-10
F-0.7460268404508488
tp2703
a(F2.4541623747968457
F0.17551708711754058
F-0.14285620465625062
F-0.0326608841728658
F4.376141020331528e-10
F2.454162374797386
tp2704
a(tag20
(g54
g22
Ntp2705
Rp2706
(lp2707
I3
aI781718365
ababag20
(g47
g22
Ntp2708
Rp2709
(lp2710
(F1.0807242296441815
F4.866776254283428
F1.5836485869469048
F-1.738035860499565
F-1.5707963261774498
F-3.6316647466033474
tp2711
a(F-0.6892160249931163
F0.24947641108721633
F-0.33569667977714857
F0.08622026911737199
F-2.2821368396288905e-10
F-0.6892160249931214
tp2712
a(F2.724528635886124
F-0.11139055947571656
F0.21297657297527373
F-0.10158601534461029
F6.057441627133933e-10
F2.7245286358865752
tp2713
a(tag20
(g54
g22
Ntp2714
Rp2715
(lp2716
I3
aI803489227
ababag20
(g47
g22
Ntp2717
Rp2718
(lp2719
(F1.0652479230522212
F4.872611005189423
F1.5758141044577711
F-1.7360361289068698
F-1.5707963261826532
F-3.6471410531953077
tp2720
a(F-0.6242469733820531
F0.24401591647956883
F-0.3271926386285797
F0.083176722532941
F-2.127037399562424e-10
F-0.6242469733820575
tp2721
a(F2.764263947456129
F-0.3401464939889427
F0.49352213943939016
F-0.15337564728292796
F7.008686828758712e-10
F2.7642639474557824
tp2722
a(tag20
(g54
g22
Ntp2723
Rp2724
(lp2725
I3
aI826996018
ababag20
(g47
g22
Ntp2726
Rp2727
(lp2728
(F1.0499761358074948
F4.878817261486756
F1.5675043065412755
F-1.733932587278357
F-1.5707963261879339
F-3.6624128404400342
tp2729
a(F-0.5502638262626409
F0.23127356232445861
F-0.30942272542975235
F0.0781491634408519
F-1.926579144332059e-10
F-0.5502638262626527
tp2730
a(F2.8780147855708513
F-0.6169021720661967
F0.8432130313540288
F-0.22631086114713292
F8.226977187681231e-10
F2.878014785570615
tp2731
a(tag20
(g54
g22
Ntp2732
Rp2733
(lp2734
I3
aI852875228
ababag20
(g47
g22
Ntp2735
Rp2736
(lp2737
(F1.0349129393206866
F4.885390487740207
F1.5587172320285232
F-1.7317187390099118
F-1.5707963261932834
F-3.677476036926843
tp2738
a(F-0.485282524670149
F0.21881493722749715
F-0.29243417833050356
F0.07361924139633727
F-1.7444473624428154e-10
F-0.48528252467016
tp2739
a(F1.6267222408967248
F-0.25351332743046184
F0.3438908756185314
F-0.09037754925498152
F4.4156506911612594e-10
F1.6267222408969908
tp2740
a(tag20
(g54
g22
Ntp2741
Rp2742
(lp2743
I3
aI882387202
ababag20
(g47
g22
Ntp2744
Rp2745
(lp2746
(F1.020061900125799
F4.892326132277089
F1.5494506575665778
F-1.7293878090759134
F-1.5707963261986932
F-3.692327076121731
tp2747
a(F-0.40608878397305054
F0.19516200998550823
F-0.2607982048797807
F0.06563619513764686
F-1.4949928703368037e-10
F-0.40608878397305664
tp2748
a(F2.9284411163378423
F-1.0690287862585748
F1.4258060143594211
F-0.35677722991405203
F9.817053592158263e-10
F2.9284411163378845
tp2749
a(tag20
(g54
g22
Ntp2750
Rp2751
(lp2752
I3
aI914661168
ababag20
(g47
g22
Ntp2753
Rp2754
(lp2755
(F1.0054260906617152
F4.89961966828618
F1.5397020708392184
F-1.7269327583489182
F-1.5707963262041553
F-3.7069628855858148
tp2756
a(F-0.27549997097928675
F0.14047908426663683
F-0.18785111117230613
F0.04737202706939732
F-1.0368532343511437e-10
F-0.2754999709792902
tp2757
a(F2.6841261567460797
F-1.2257770568389301
F1.6353693607546367
F-0.4095923055351814
F9.71236312693183e-10
F2.6841261567461463
tp2758
a(tag20
(g54
g22
Ntp2759
Rp2760
(lp2761
I3
aI956237552
ababag20
(g47
g22
Ntp2762
Rp2763
(lp2764
(F0.9910081022518845
F4.907266635517714
F1.5294686411281588
F-1.7243462958608746
F-1.570796326209662
F-3.7213808739956455
tp2765
a(F-0.09948888177173706
F0.06811913946782677
F0.012785834796956774
F-0.08090497420600536
F-3.799809044911474e-11
F-0.09948888177173827
tp2766
a(F1.9978445077422355
F-0.7513148207895669
F3.092766509581724
F-2.3414516899725224
F7.630428546806805e-10
F1.9978445077422418
tp2767
a(tag20
(g54
g22
Ntp2768
Rp2769
(lp2770
I4
aI28697853
ababag20
(g47
g22
Ntp2771
Rp2772
(lp2773
(F0.991008101579621
F4.91115795607831
F1.5506075294062633
F-1.7493765046995755
F-1.570796326209662
F-3.721380874667909
tp2774
a(F-8.998635244205605e-09
F0.05754010069144189
F0.27720431689140035
F-0.334744417582841
F0.0
F-8.99863568222516e-09
tp2775
a(F-8.222813971054038e-08
F0.5973398832317977
F2.457574221718585
F-3.0549141049503166
F0.0
F-8.222812996034934e-08
tp2776
a(tag20
(g54
g22
Ntp2777
Rp2778
(lp2779
I4
aI155429983
ababag20
(g47
g22
Ntp2780
Rp2781
(lp2782
(F0.9910081009073579
F4.915626857168866
F1.5711371093487752
F-1.7743749857326432
F-1.570796326209662
F-3.7213808753401723
tp2783
a(F-1.4584853090017502e-08
F0.10400990597567869
F0.43803654561817507
F-0.5420464515938517
F0.0
F-1.4584851729451213e-08
tp2784
a(F-8.072052640309787e-08
F0.8376194734148503
F2.1512428377520063
F-2.988862311166947
F0.0
F-8.07204683613789e-08
tp2785
a(tag20
(g54
g22
Ntp2786
Rp2787
(lp2788
I4
aI208394663
ababag20
(g47
g22
Ntp2789
Rp2790
(lp2791
(F0.9910081002350942
F4.920671564904914
F1.5910664659872178
F-1.799349050107134
F-1.570796326209662
F-3.721380876012436
tp2792
a(F-1.7902094954832657e-08
F0.14259485901145674
F0.5221910255212819
F-0.6647858845327388
F0.0
F-1.7902095190177112e-08
tp2793
a(F-7.541643028162705e-08
F1.0028744329643196
F1.7848793021086822
F-2.7877537350730006
F0.0
F-7.541658674333299e-08
tp2794
a(tag20
(g54
g22
Ntp2795
Rp2796
(lp2797
I4
aI249194697
ababag20
(g47
g22
Ntp2798
Rp2799
(lp2800
(F0.9910080995628308
F4.9262906450025525
F1.6104031609422509
F-1.8243048251598053
F-1.570796326209662
F-3.7213808766846994
tp2801
a(F-2.0563046523120102e-08
F0.18116808730272713
F0.5819584954133159
F-0.7631265827160538
F0.0
F-2.0563049919045782e-08
tp2802
a(F-7.5333387748061e-08
F1.196115394698986
F1.5872971136146317
F-2.783412508314276
F0.0
F-7.533340018914481e-08
tp2803
a(tag20
(g54
g22
Ntp2804
Rp2805
(lp2806
I4
aI283978065
ababag20
(g47
g22
Ntp2807
Rp2808
(lp2809
(F0.9910080988905673
F4.932482898006453
F1.629153412521905
F-1.84924732974336
F-1.570796326209662
F-3.721380877356963
tp2810
a(F-2.283975066910777e-08
F0.22053952481716865
F0.6267012522629509
F-0.8472407770801265
F0.0
F-2.2839752469122705e-08
tp2811
a(F-7.057494236999463e-08
F1.3390918281040662
F1.2681463266833908
F-2.6072381547864567
F0.0
F-7.057482031512571e-08
tp2812
a(tag20
(g54
g22
Ntp2813
Rp2814
(lp2815
I4
aI314817338
ababag20
(g47
g22
Ntp2816
Rp2817
(lp2818
(F0.9910080982183037
F4.939247261881769
F1.6473222138930836
F-1.8741804949898546
F-1.570796326209662
F-3.7213808780292266
tp2819
a(F-2.4773337517251652e-08
F0.26017288984944764
F0.6585063340568394
F-0.9186792239062747
F0.0
F-2.477333963659268e-08
tp2820
a(F-6.57133190225171e-08
F1.4636456802011324
F0.9644522247652899
F-2.4280979049660902
F0.0
F-6.57134750177825e-08
tp2821
a(tag20
(g54
g22
Ntp2822
Rp2823
(lp2824
I4
aI342968418
ababag20
(g47
g22
Ntp2825
Rp2826
(lp2827
(F0.9910080975460402
F4.946582719058826
F1.664913439592226
F-1.899107177866054
F-1.570796326209662
F-3.72138087870149
tp2828
a(F-2.5206948531581614e-08
F0.2855398258728099
F0.6490157255025022
F-0.9345555513752996
F0.0
F-2.5206944520389068e-08
tp2829
a(F3.4421993779056856e-08
F0.4109617119753782
F-1.6937600489668116
F1.2827983369911047
F0.0
F3.4422612242417976e-08
tp2830
a(tag20
(g54
g22
Ntp2831
Rp2832
(lp2833
I4
aI369161065
ababag20
(g47
g22
Ntp2834
Rp2835
(lp2836
(F0.9910080968737768
F4.954488207244924
F1.6819299423757192
F-1.9240291688356448
F-1.570796326209662
F-3.7213808793737533
tp2837
a(F-2.3737611228732237e-08
F0.2887581242104016
F0.5911699865739934
F-0.8799281107843872
F0.0
F-2.3737608851568006e-08
tp2838
a(F7.120909970118674e-08
F-0.15956921122383633
F-2.4849972171304824
F2.644566428354297
F0.0
F7.120840296432317e-08
tp2839
a(tag20
(g54
g22
Ntp2840
Rp2841
(lp2842
I4
aI396325659
ababag20
(g47
g22
Ntp2843
Rp2844
(lp2845
(F0.9910080962015134
F4.962962533524653
F1.6983736420895712
F-1.9489471948292256
F-1.570796326209662
F-3.721380880046017
tp2846
a(F-2.1618871006380956e-08
F0.28117618942159683
F0.5200803762882092
F-0.8012565657098057
F0.0
F-2.1618869678927574e-08
tp2847
a(F7.111195958301159e-08
F-0.3411551143886979
F-2.298885441537905
F2.6400405559261437
F0.0
F7.111252627480282e-08
tp2848
a(tag20
(g54
g22
Ntp2849
Rp2850
(lp2851
I4
aI425905029
ababag20
(g47
g22
Ntp2852
Rp2853
(lp2854
(F0.99100809552925
F4.972004291452779
F1.714245607971918
F-1.973860918639699
F-1.570796326209662
F-3.72138088071828
tp2855
a(F-1.923314774606615e-08
F0.2662358010580463
F0.44645813534200113
F-0.7126939364000509
F0.0
F-1.923314414793272e-08
tp2856
a(F7.275537982700525e-08
F-0.5481400312683496
F-2.1524768827313654
F2.700616913999908
F0.0
F7.27550059249135e-08
tp2857
a(tag20
(g54
g22
Ntp2858
Rp2859
(lp2860
I4
aI458681897
ababag20
(g47
g22
Ntp2861
Rp2862
(lp2863
(F0.9910080948569865
F4.98161178100688
F1.7295461355793456
F-1.9987689358012268
F-1.570796326209662
F-3.7213808813905436
tp2864
a(F-1.9299863793316113e-08
F0.2844736688990781
F0.43047940509607907
F-0.7149530739951504
F0.0
F-1.929986527600541e-08
tp2865
a(F-7.678765390013958e-08
F1.5918953996068772
F1.245979449953054
F-2.83787484955954
F0.0
F-7.6787569180509e-08
tp2866
a(tag20
(g54
g22
Ntp2867
Rp2868
(lp2869
I4
aI496121400
ababag20
(g47
g22
Ntp2870
Rp2871
(lp2872
(F0.9910080941847229
F4.991782931413828
F1.744274819339266
F-2.023668769968095
F-1.570796326209662
F-3.721380882062807
tp2873
a(F-2.1787897046085805e-08
F0.3392153211153677
F0.46758207006484365
F-0.8067973911802121
F0.0
F-2.1787898939666353e-08
tp2874
a(F-7.395953550207518e-08
F1.7376524659471302
F0.9887849123935146
F-2.726437378341578
F0.0
F-7.395965790456252e-08
tp2875
a(tag20
(g54
g22
Ntp2876
Rp2877
(lp2878
I4
aI528686418
ababag20
(g47
g22
Ntp2879
Rp2880
(lp2881
(F0.9910080935124594
F5.002515226997092
F1.7584306215681957
F-2.0485568677802894
F-1.570796326209662
F-3.7213808827350707
tp2882
a(F-2.387795280621092e-08
F0.3915020300608678
F0.4921896374937835
F-0.8836916675546671
F0.0
F-2.3877956749583464e-08
tp2883
a(F-6.70884331531059e-08
F1.8018770818417036
F0.6603886105733803
F-2.462265692415129
F0.0
F-6.708844423256025e-08
tp2884
a(tag20
(g54
g22
Ntp2885
Rp2886
(lp2887
I4
aI558001860
ababag20
(g47
g22
Ntp2888
Rp2889
(lp2890
(F0.991008092840196
F5.01380563631167
F1.7720119386539528
F-2.0734285941806245
F-1.570796326209662
F-3.7213808834073343
tp2891
a(F-2.437478727845381e-08
F0.4192325466743808
F0.48216815835195315
F-0.9014007050263462
F0.0
F-2.437479130387708e-08
tp2892
a(F3.255270437185547e-08
F0.16857709487150202
F-1.401426557733861
F1.2328494628626647
F0.0
F3.25527097478373e-08
tp2893
a(tag20
(g54
g22
Ntp2894
Rp2895
(lp2896
I4
aI585083218
ababag20
(g47
g22
Ntp2897
Rp2898
(lp2899
(F0.9910080921679325
F5.0256505449405715
F1.7850166649740127
F-2.0982782291295865
F-1.570796326209662
F-3.721380884079598
tp2900
a(F-2.2827159531468292e-08
F0.41109411345298474
F0.43222493365039705
F-0.8433190471033822
F0.0
F-2.2827161507099572e-08
tp2901
a(F7.443250404961258e-08
F-0.7089733138421859
F-2.074005482370412
F2.7829787962131114
F0.0
F7.443263790664526e-08
tp2902
a(tag20
(g54
g22
Ntp2903
Rp2904
(lp2905
I4
aI613181149
ababag20
(g47
g22
Ntp2906
Rp2907
(lp2908
(F0.9910080914956689
F5.038045692420667
F1.7974422550090208
F-2.1230989666446898
F-1.570796326209662
F-3.7213808847518615
tp2909
a(F-2.048915172918512e-08
F0.38558430121217047
F0.37037196625377494
F-0.755956267465945
F0.0
F-2.0489154908218202e-08
tp2910
a(F7.52744204221776e-08
F-0.9137768405771849
F-1.8974203603109305
F2.8111972008877024
F0.0
F7.527422735103321e-08
tp2911
a(tag20
(g54
g22
Ntp2912
Rp2913
(lp2914
I4
aI644120274
ababag20
(g47
g22
Ntp2915
Rp2916
(lp2917
(F0.9910080908234056
F5.0509861138454015
F1.809285784007028
F-2.147882917067432
F-1.570796326209662
F-3.721380885424125
tp2918
a(F-1.7809776278973934e-08
F0.34939007070950373
F0.30663559944651353
F-0.6560256701560178
F0.0
F-1.7809778106292415e-08
tp2919
a(F7.579560709751061e-08
F-1.1132097321540086
F-1.7104344084624525
F2.823644140616774
F0.0
F7.579584558770921e-08
tp2920
a(tag20
(g54
g22
Ntp2921
Rp2922
(lp2923
I4
aI679043567
ababag20
(g47
g22
Ntp2924
Rp2925
(lp2926
(F0.9910080901511419
F5.06446608675592
F1.820544007458587
F-2.1726211134295093
F-1.570796326209662
F-3.7213808860963886
tp2927
a(F-1.456017655868147e-08
F0.29700993806387926
F0.2382516472504579
F-0.5352615853143365
F0.0
F-1.4560173101257328e-08
tp2928
a(F7.717802323086518e-08
F-1.3319649527350987
F-1.5306167272725812
F2.8625816800074735
F0.0
F7.717805538703776e-08
tp2929
a(tag20
(g54
g22
Ntp2930
Rp2931
(lp2932
I4
aI720110780
ababag20
(g47
g22
Ntp2933
Rp2934
(lp2935
(F0.9910080894788785
F5.078479083978941
F1.8312134195538243
F-2.1973035227477675
F-1.570796326209662
F-3.7213808867686518
tp2936
a(F-8.994874978442646e-09
F0.1895420175098364
F0.14044769754224196
F-0.32998971505207875
F0.0
F-8.994872872733106e-09
tp2937
a(F8.298025796460984e-08
F-1.684425644272497
F-1.3679845890137092
F3.0524102332862912
F0.0
F8.298021143927958e-08
tp2938
a(tag20
(g54
g22
Ntp2939
Rp2940
(lp2941
I4
aI772835194
ababag20
(g47
g22
Ntp2942
Rp2943
(lp2944
(F0.991008088806615
F5.093017733097374
F1.8412903107093703
F-2.221919063021746
F-1.570796326209662
F-3.7213808874409153
tp2945
a(F0.0
F0.0
F0.0
F0.0
F0.0
F0.0
tp2946
a(F8.166320457266863e-08
F-1.7660821079376472
F-1.2240901495367678
F2.990172257474361
F0.0
F8.166320457266863e-08
tp2947
a(tag20
(g54
g22
Ntp2948
Rp2949
(lp2950
I4
aI901148466
ababag20
(g47
g22
Ntp2951
Rp2952
(lp2953
g2945
a(lp2954
I0
aI0
aI0
aI0
aI0
aI0
aa(lp2955
a(lp2956
ag20
(g54
g22
Ntp2957
Rp2958
(lp2959
I5
aI401148466
ababaaba(lp2960
a(lp2961
ag20
(g54
g22
Ntp2962
Rp2963
(lp2964
I0
aI0
ababssS'sequence'
p2965
(dp2966
S'operations'
p2967
(lp2968
(dp2969
S'arm'
p2970
S'pre'
p2971
sS'hand'
p2972
S'startup'
p2973
sa(dp2974
S'arm'
p2975
I00
sS'hand'
p2976
S'grasp'
p2977
sa(dp2978
S'arm'
p2979
S'move'
p2980
sS'hand'
p2981
I00
sa(dp2982
S'arm'
p2983
I00
sS'hand'
p2984
S'release'
p2985
sa(dp2986
S'arm'
p2987
S'post'
p2988
sS'hand'
p2989
I00
sasS'setup'
p2990
(dp2991
S'hand_traj_space'
p2992
S'pressure'
p2993
sS'arm_traj_space'
p2994
S'joint-planned'
p2995
ssS'startup'
p2996
(dp2997
S'arm'
p2998
S'pre'
p2999
sS'hand'
p3000
S'startup'
p3001
sss.